Certificate:
    Data:
        Version: 3 (0x2)
        Serial Number: 1 (0x1)
        Signature Algorithm: sha256WithRSAEncryption
        Issuer: C=US, ST=Maryland, L=Baltimore, O=Internet Widgits Pty Ltd, OU=Server Research Department, CN=Intermediate_CA/emailAddress=test@example.com
        Validity
            Not Before: May  7 18:15:56 2023 GMT
            Not After : May  6 18:15:56 2024 GMT
        Subject: C=US, ST=Maryland, L=Baltimore, O=Internet Widgits Pty Ltd, OU=Server Research Department, CN=OCSP/emailAddress=test@example.com
        Subject Public Key Info:
            Public Key Algorithm: rsaEncryption
                RSA Public-Key: (4096 bit)
                Modulus:
                    00:d0:ad:67:9c:15:6e:d5:af:f5:00:17:b8:bd:2f:
                    92:37:04:f1:2c:01:47:5c:ef:c4:2f:0a:64:70:24:
                    05:7f:a2:9c:01:33:da:97:e9:b9:cb:52:16:9b:16:
                    8f:c6:95:31:f0:22:7a:ce:04:f4:03:1d:7e:fb:ea:
                    8a:da:bb:7d:3c:17:a2:68:51:7c:3d:dd:52:8a:f0:
                    5b:06:b5:b3:52:20:f8:f5:68:ab:9d:ad:70:ae:5a:
                    16:86:2e:ea:27:e6:a9:09:94:09:dd:17:29:10:c0:
                    95:6f:88:01:85:80:73:17:80:7f:89:74:28:9a:5b:
                    be:64:9d:c8:f6:8b:74:a0:19:83:3a:58:5e:c5:cf:
                    1e:88:be:67:c7:aa:b8:ca:60:37:dd:90:06:de:48:
                    f6:e6:8d:8d:c5:88:50:a0:95:43:72:cb:8a:24:4c:
                    26:03:48:84:c8:1d:4f:a9:ea:85:65:a6:5c:ef:3d:
                    f8:a9:71:ee:78:bd:be:08:1a:1b:d1:d9:fb:aa:70:
                    b0:11:71:e7:cc:4b:ea:39:cf:3a:d3:19:ec:80:64:
                    5a:d2:df:d9:c3:15:2c:1a:18:5b:fc:dd:a9:0a:29:
                    f8:00:9e:28:7d:34:dc:a1:d2:b2:96:1b:92:41:33:
                    40:ac:8d:e8:da:ee:8d:1d:73:a2:25:f8:4e:36:69:
                    d9:dc:df:ee:f5:94:02:7b:34:56:61:7b:d6:43:63:
                    e8:4a:a6:89:2b:34:63:a8:ff:48:62:af:6e:64:39:
                    4e:ee:34:76:40:5b:63:09:ce:46:a2:6d:4d:31:57:
                    cf:a3:e7:47:0a:c5:a8:3d:59:42:1e:1c:5f:1d:f5:
                    9b:39:9b:42:83:1f:98:78:93:1c:31:4f:07:b1:12:
                    51:76:d0:4a:01:cc:e8:8d:11:e3:bd:38:ba:f5:9b:
                    7d:79:02:74:ec:9d:ed:3e:a9:ca:a5:16:30:01:94:
                    3e:ed:ef:ad:fd:0d:b3:a0:3e:30:b9:cc:3b:cf:05:
                    a0:ea:80:b7:1f:2e:0e:c1:7e:2b:43:7d:bd:7e:55:
                    f4:d3:bb:17:8b:09:78:17:ca:45:43:e0:cf:f7:47:
                    94:b8:2d:58:74:89:fd:73:49:78:25:53:27:b2:b9:
                    da:dd:7e:79:68:da:37:b5:d3:35:a9:e7:2e:be:cc:
                    3b:dc:3b:d1:12:ee:6b:3d:84:2c:ac:38:55:3a:84:
                    d6:21:c0:db:85:2d:74:b8:62:e5:bb:09:b6:a8:20:
                    38:de:ed:34:de:54:f5:4f:dc:23:db:dd:3b:0b:4a:
                    e6:82:c0:68:86:6e:9a:ce:61:87:37:34:01:fc:09:
                    74:2d:fa:c7:72:24:b8:7a:9f:aa:99:8f:de:1f:65:
                    3f:68:cb
                Exponent: 65537 (0x10001)
        X509v3 extensions:
            X509v3 Basic Constraints: 
                CA:FALSE
            X509v3 Key Usage: 
                Digital Signature, Non Repudiation, Key Encipherment
            X509v3 Extended Key Usage: 
                OCSP Signing
    Signature Algorithm: sha256WithRSAEncryption
         ac:5a:79:66:52:c1:88:8d:72:d1:d0:f2:19:7c:0a:18:84:7b:
         01:fc:5e:70:e9:36:0b:14:af:fa:64:14:21:f6:bd:a5:01:33:
         98:46:56:7f:13:f3:8c:98:88:cd:6a:d5:28:40:64:41:ea:e2:
         01:84:f6:d5:68:38:6d:9f:f1:a9:e0:e3:e0:8d:8f:91:bd:33:
         db:f3:c4:53:5e:53:53:98:31:a2:24:1f:44:42:33:61:d4:a3:
         0c:41:11:1b:48:e2:6b:f6:7c:a8:92:60:ce:e4:b9:ee:47:3f:
         4c:32:e7:36:05:d2:5d:fc:cd:9b:8b:5c:dd:90:be:02:d5:e7:
         11:de:10:00:01:12:ba:46:de:fa:5a:d3:68:a1:c0:b1:16:d8:
         60:e5:1b:7a:2e:df:28:55:b6:50:da:f9:f0:41:d9:f0:08:e4:
         a4:ce:cf:1a:bf:71:da:88:22:39:79:4d:52:85:a5:3e:d0:4e:
         df:3d:03:00:fb:a4:dd:b2:03:b5:f1:ab:78:5a:53:03:e4:8e:
         5b:24:dd:f8:0d:0e:8d:c8:a0:d5:6f:5e:63:f0:0a:4a:f8:3c:
         2e:64:27:dd:9d:39:7d:37:9c:3f:56:cb:15:8a:2e:5c:5f:87:
         01:75:b7:c9:3b:53:8f:bf:e8:12:02:67:20:3a:39:1d:03:18:
         71:ff:66:5d:5f:5f:b3:d6:67:f3:b1:26:15:8b:8b:89:9e:0d:
         fa:9f:9f:b3:39:74:c0:64:23:04:45:30:15:98:2e:b2:55:6e:
         2d:ea:8c:7f:d4:28:0e:59:81:0b:7e:69:a0:a5:1a:06:99:12:
         05:82:8f:dd:55:03:3f:41:b0:bc:6b:55:41:38:5f:a6:96:de:
         ac:10:b1:1e:72:13:7b:54:3f:e0:64:fc:2a:5a:2c:46:b7:e6:
         00:48:d2:33:a3:78:ef:ad:38:9d:50:d5:53:ad:28:6b:23:2d:
         7a:9d:4a:2e:7c:01:50:3a:7a:8a:71:85:82:a8:96:8b:88:ea:
         49:b4:df:c5:1a:58:21:ed:92:0c:10:8c:1d:dc:5f:6d:e3:07:
         17:e1:f4:7f:c8:55:aa:d5:14:bb:9b:2c:f6:ed:03:2a:20:8f:
         ad:de:79:d8:18:35:1e:63:96:a3:47:ae:6a:f6:b1:55:02:2c:
         e4:32:cc:d1:44:7b:f9:e7:47:86:3f:bb:c7:9f:3f:eb:39:1b:
         11:80:7d:07:12:f3:d4:29:4f:75:b1:c3:42:10:7b:a9:0f:2a:
         4e:a7:5b:04:ba:bb:89:30:e7:73:1a:84:3e:f3:53:58:01:be:
         0d:d2:41:2f:b1:9e:4f:b1:8a:ff:19:cb:4a:87:ec:69:10:f6:
         d7:d4:c3:77:16:8c:c9:41
-----BEGIN CERTIFICATE-----
MIIGDzCCA/egAwIBAgIBATANBgkqhkiG9w0BAQsFADCBtzELMAkGA1UEBhMCVVMx
ETAPBgNVBAgMCE1hcnlsYW5kMRIwEAYDVQQHDAlCYWx0aW1vcmUxITAfBgNVBAoM
GEludGVybmV0IFdpZGdpdHMgUHR5IEx0ZDEjMCEGA1UECwwaU2VydmVyIFJlc2Vh
cmNoIERlcGFydG1lbnQxGDAWBgNVBAMMD0ludGVybWVkaWF0ZV9DQTEfMB0GCSqG
SIb3DQEJARYQdGVzdEBleGFtcGxlLmNvbTAeFw0yMzA1MDcxODE1NTZaFw0yNDA1
MDYxODE1NTZaMIGsMQswCQYDVQQGEwJVUzERMA8GA1UECAwITWFyeWxhbmQxEjAQ
BgNVBAcMCUJhbHRpbW9yZTEhMB8GA1UECgwYSW50ZXJuZXQgV2lkZ2l0cyBQdHkg
THRkMSMwIQYDVQQLDBpTZXJ2ZXIgUmVzZWFyY2ggRGVwYXJ0bWVudDENMAsGA1UE
AwwET0NTUDEfMB0GCSqGSIb3DQEJARYQdGVzdEBleGFtcGxlLmNvbTCCAiIwDQYJ
KoZIhvcNAQEBBQADggIPADCCAgoCggIBANCtZ5wVbtWv9QAXuL0vkjcE8SwBR1zv
xC8KZHAkBX+inAEz2pfpuctSFpsWj8aVMfAies4E9AMdfvvqitq7fTwXomhRfD3d
UorwWwa1s1Ig+PVoq52tcK5aFoYu6ifmqQmUCd0XKRDAlW+IAYWAcxeAf4l0KJpb
vmSdyPaLdKAZgzpYXsXPHoi+Z8equMpgN92QBt5I9uaNjcWIUKCVQ3LLiiRMJgNI
hMgdT6nqhWWmXO89+Klx7ni9vggaG9HZ+6pwsBFx58xL6jnPOtMZ7IBkWtLf2cMV
LBoYW/zdqQop+ACeKH003KHSspYbkkEzQKyN6NrujR1zoiX4TjZp2dzf7vWUAns0
VmF71kNj6EqmiSs0Y6j/SGKvbmQ5Tu40dkBbYwnORqJtTTFXz6PnRwrFqD1ZQh4c
Xx31mzmbQoMfmHiTHDFPB7ESUXbQSgHM6I0R4704uvWbfXkCdOyd7T6pyqUWMAGU
Pu3vrf0Ns6A+MLnMO88FoOqAtx8uDsF+K0N9vX5V9NO7F4sJeBfKRUPgz/dHlLgt
WHSJ/XNJeCVTJ7K52t1+eWjaN7XTNannLr7MO9w70RLuaz2ELKw4VTqE1iHA24Ut
dLhi5bsJtqggON7tNN5U9U/cI9vdOwtK5oLAaIZums5hhzc0AfwJdC36x3IkuHqf
qpmP3h9lP2jLAgMBAAGjLzAtMAkGA1UdEwQCMAAwCwYDVR0PBAQDAgXgMBMGA1Ud
JQQMMAoGCCsGAQUFBwMJMA0GCSqGSIb3DQEBCwUAA4ICAQCsWnlmUsGIjXLR0PIZ
fAoYhHsB/F5w6TYLFK/6ZBQh9r2lATOYRlZ/E/OMmIjNatUoQGRB6uIBhPbVaDht
n/Gp4OPgjY+RvTPb88RTXlNTmDGiJB9EQjNh1KMMQREbSOJr9nyokmDO5LnuRz9M
Muc2BdJd/M2bi1zdkL4C1ecR3hAAARK6Rt76WtNoocCxFthg5Rt6Lt8oVbZQ2vnw
QdnwCOSkzs8av3HaiCI5eU1ShaU+0E7fPQMA+6TdsgO18at4WlMD5I5bJN34DQ6N
yKDVb15j8ApK+DwuZCfdnTl9N5w/VssVii5cX4cBdbfJO1OPv+gSAmcgOjkdAxhx
/2ZdX1+z1mfzsSYVi4uJng36n5+zOXTAZCMERTAVmC6yVW4t6ox/1CgOWYELfmmg
pRoGmRIFgo/dVQM/QbC8a1VBOF+mlt6sELEechN7VD/gZPwqWixGt+YASNIzo3jv
rTidUNVTrShrIy16nUoufAFQOnqKcYWCqJaLiOpJtN/FGlgh7ZIMEIwd3F9t4wcX
4fR/yFWq1RS7myz27QMqII+t3nnYGDUeY5ajR65q9rFVAizkMszRRHv550eGP7vH
nz/rORsRgH0HEvPUKU91scNCEHupDypOp1sEuruJMOdzGoQ+81NYAb4N0kEvsZ5P
sYr/GctKh+xpEPbX1MN3FozJQQ==
-----END CERTIFICATE-----
