Certificate:
    Data:
        Version: 3 (0x2)
        Serial Number: 2 (0x2)
        Signature Algorithm: falcon512
        Issuer: C=US, ST=Maryland, L=Baltimore, O=Internet Widgits Pty Ltd, OU=Server Research Department, CN=Intermediate_CA/emailAddress=test@example.com
        Validity
            Not Before: May  7 18:15:56 2023 GMT
            Not After : May  6 18:15:56 2024 GMT
        Subject: C=US, ST=Maryland, L=Baltimore, O=Internet Widgits Pty Ltd, OU=Server Research Department, CN=Server/emailAddress=test@example.com
        Subject Public Key Info:
            Public Key Algorithm: falcon512
                falcon512 Public-Key:
                pub:
                    09:5d:0d:0b:c4:3a:4d:d4:36:dc:d5:f1:4f:4f:8c:
                    6a:a2:84:75:a4:52:ea:8b:c8:a9:78:91:56:95:5a:
                    18:7f:b6:7a:0a:19:65:2e:71:08:a7:12:1a:9f:fc:
                    a8:53:26:97:14:3e:39:5c:80:cb:59:e2:a8:58:b9:
                    f6:1c:9a:0d:35:8c:b6:1a:90:1d:35:47:0e:11:8a:
                    d0:1b:18:52:2e:78:e4:9a:a1:f9:52:fa:a2:75:49:
                    1e:c1:57:1d:a0:31:5b:ec:67:b6:c9:3e:62:e1:49:
                    7a:bc:45:54:35:33:5e:86:49:9e:d8:03:92:67:64:
                    26:ad:0f:07:fd:5c:27:bb:f1:84:4a:5a:0f:2d:7b:
                    99:ae:b1:ea:ac:cf:71:a9:3c:a9:9f:5f:66:62:a1:
                    a3:30:0d:00:8e:1b:54:8f:32:e9:c7:65:96:35:45:
                    51:b3:e1:25:0b:c8:da:57:cf:8a:f5:bd:89:6f:b7:
                    3e:a6:8d:46:e1:22:74:db:28:50:52:8e:5d:3a:b7:
                    5f:18:9c:62:71:12:c5:4a:eb:3c:3e:32:60:1f:d8:
                    d0:74:fc:b2:a0:3c:02:33:0c:12:0b:f3:1f:cb:55:
                    39:46:e6:75:e8:4e:0f:a5:cc:af:8a:ba:54:3f:80:
                    bd:f4:54:d0:89:d5:a2:a2:4a:1b:1a:c4:f7:2d:39:
                    63:24:76:13:99:9a:75:d0:71:0b:cb:6e:3c:a6:a9:
                    d1:cc:02:1d:74:51:76:d4:13:d7:fa:bf:12:29:35:
                    ef:01:53:13:ac:af:58:46:dc:51:20:3e:cd:bb:c4:
                    a7:d9:4b:be:fa:49:25:84:fb:80:9a:e0:65:85:2f:
                    87:0e:8d:13:23:96:50:ae:68:6c:0f:13:12:05:65:
                    37:81:90:3a:bd:8d:ba:8c:15:f1:e0:b4:e3:3d:bd:
                    a0:cf:64:9e:d7:e7:34:c0:30:a5:df:16:87:84:44:
                    3c:12:9b:50:7e:42:06:0f:17:a2:af:ba:17:c9:e8:
                    85:8c:8e:42:4b:68:2e:27:db:dc:28:18:76:50:f3:
                    ea:c9:9e:a8:aa:2b:d9:b7:43:41:a4:06:12:d2:04:
                    82:d3:9f:a4:37:30:80:d5:41:86:00:76:c7:5b:4b:
                    c1:7c:32:ef:8a:2b:d2:ac:25:8a:5a:56:d4:42:3f:
                    28:c6:74:85:e3:61:93:3e:9c:ab:74:e9:ea:5d:04:
                    2a:3d:5b:0a:da:f1:aa:04:6c:20:89:80:fc:59:f4:
                    ac:f0:af:2a:57:a3:e1:81:13:5b:0f:40:96:24:2d:
                    60:e3:e7:7d:72:00:55:82:57:ef:cf:94:15:ec:08:
                    da:1c:3e:ad:98:23:96:79:c2:0d:15:29:7b:62:b0:
                    c1:aa:10:d0:e3:6a:81:c4:b7:04:45:82:09:90:14:
                    99:a0:96:83:eb:10:67:96:44:a9:39:06:5b:52:b6:
                    7e:2d:75:b0:eb:a5:45:4a:79:8e:70:47:cc:92:4f:
                    1e:f2:e1:51:49:38:94:b1:f9:8b:1a:4b:94:12:a9:
                    c7:f3:8d:d9:63:34:22:37:e3:9b:a5:93:bd:04:bc:
                    2b:81:a2:d1:b4:09:da:92:b6:ee:c1:70:e8:6f:b1:
                    c4:09:44:6e:bc:0e:c5:19:a3:b0:74:da:df:52:37:
                    88:a3:9d:d5:55:c4:e3:93:ee:0a:59:66:f6:e1:d1:
                    3b:bf:39:60:39:15:8a:a8:08:86:67:03:50:94:5d:
                    52:70:52:52:65:48:6b:b9:5c:cd:c9:83:08:4e:ad:
                    e9:d7:02:44:4c:42:a2:8e:18:c8:5e:88:24:74:20:
                    ca:c4:6b:02:62:12:68:36:8b:7a:0d:c6:84:18:5d:
                    7a:4c:43:92:2e:55:4c:31:fe:ac:f9:b3:01:7c:60:
                    0a:2f:f1:7a:18:8a:80:84:a6:af:75:76:a7:19:1b:
                    c7:c8:3a:da:56:45:3f:1b:cd:57:3c:25:a6:a7:6a:
                    31:16:fc:c5:91:11:aa:d9:44:e6:70:eb:c8:26:f4:
                    bd:ba:bb:c3:57:c6:66:1a:dc:f5:b2:d9:28:04:5e:
                    0e:6d:e1:7e:0f:fd:75:8c:2d:73:b5:49:9f:11:06:
                    ac:2a:7a:e4:76:a7:ec:f9:85:0d:82:46:2a:9d:5d:
                    d4:2f:cc:0a:55:11:c2:ea:27:e5:70:b2:b5:25:8a:
                    73:45:2a:25:b9:be:b8:3b:04:a6:08:f1:c1:c5:75:
                    a9:07:70:78:a1:04:2c:ac:56:8d:69:23:88:f9:68:
                    bf:72:55:22:ea:d5:9b:c3:b0:19:6d:86:f3:8a:27:
                    97:7a:ed:40:70:d1:f1:bf:62:ad:42:67:17:9a:3d:
                    09:dc:b4:db:0a:e5:39:26:d9:42:cc:69:fe:4c:d5:
                    e5:e4:7d:42:cb:99:52:85:bb:19:56:a2
        X509v3 extensions:
            X509v3 Basic Constraints: critical
                CA:FALSE
            X509v3 Subject Key Identifier: 
                AC:A4:DC:BD:17:27:49:48:25:60:10:03:6E:22:04:FC:87:68:36:82
            X509v3 Authority Key Identifier: 
                keyid:58:3A:1E:45:B5:20:9B:5A:59:55:59:5A:BF:0E:EB:D5:AF:D7:74:10
                DirName:/C=US/ST=Maryland/L=Baltimore/O=Internet Widgits Pty Ltd/OU=Server Research Department/CN=Root_CA/emailAddress=test@example.com
                serial:01

            X509v3 Key Usage: 
                Digital Signature, Non Repudiation, Key Encipherment, Key Agreement
            X509v3 Extended Key Usage: 
                TLS Web Server Authentication
    Signature Algorithm: falcon512
         39:f2:e8:f8:0e:41:d8:3b:10:e9:30:7d:42:bd:2c:c3:6f:58:
         9a:e2:9e:2e:9c:08:3f:2f:d9:a4:07:b4:e9:06:1f:65:2e:ca:
         dd:68:74:8a:ed:8a:c0:88:83:1b:64:68:a9:a6:b1:84:43:e6:
         b6:7e:8a:df:cf:75:db:f9:ca:e5:46:70:be:54:0f:ef:b2:72:
         a0:b6:d4:6f:ae:0e:0e:df:6f:ca:cc:99:cf:d8:26:d4:3f:46:
         ae:60:e1:91:b7:ee:36:33:29:56:56:64:4f:72:0a:36:d9:a7:
         8d:21:07:7f:bb:70:52:6f:28:b1:ec:6a:9f:48:ae:bd:2e:41:
         79:53:76:75:82:63:9b:3c:24:6a:ff:79:f7:f1:c8:4e:98:dc:
         b7:f1:57:48:ef:1f:bb:96:89:3a:29:bc:cf:0b:2f:0b:62:56:
         9b:74:6e:d0:dd:f6:ea:96:ee:07:81:54:44:6e:0e:e7:5b:1e:
         94:20:53:99:8f:c6:4d:2b:ca:37:73:37:0f:81:0a:c1:b0:8f:
         31:08:8c:37:55:5f:34:33:d6:c6:11:43:9e:9d:e3:cd:09:11:
         5a:a3:e7:f4:83:eb:08:7f:4f:31:f6:26:d5:54:28:8b:d7:e7:
         83:ec:de:5a:a2:f9:0d:7c:55:cd:6f:36:07:71:6a:c4:4e:44:
         6f:09:1b:88:15:3a:17:d6:b7:38:46:54:3b:ea:c9:3e:22:4e:
         ee:6a:3d:99:e1:45:11:d4:f1:a2:a3:ac:83:5e:4a:63:73:bf:
         cb:bf:fc:53:b8:bb:de:ae:96:03:18:69:46:88:8d:be:0f:7f:
         a6:47:ef:76:1a:96:3d:e0:88:f5:d9:a5:90:7f:3a:3d:35:1b:
         1f:a2:64:1c:8d:b3:69:47:e7:e3:05:ac:fd:21:d5:60:b9:44:
         9e:64:14:5f:e5:c7:02:18:87:fd:b1:34:1e:37:bb:e0:f6:b1:
         6c:eb:41:a2:6d:d1:b2:a2:74:0c:97:cd:5c:a0:45:48:f7:d5:
         db:50:a2:fb:8d:c2:1a:e0:7c:d9:7c:2c:2f:02:63:11:25:86:
         d6:82:41:4c:e4:74:ef:f0:92:28:5f:50:a9:65:b2:2b:4e:0e:
         e9:dc:98:a1:38:f4:c5:5a:bf:e7:e6:87:a6:87:0f:17:44:28:
         cb:7c:5e:a8:03:19:27:45:24:c2:9d:30:39:33:86:f2:2d:68:
         ce:db:b0:d6:dc:9d:93:b2:a1:b4:88:c7:e1:5e:31:b5:64:6b:
         45:f2:63:39:7f:cb:62:0b:50:cb:bc:7e:38:aa:12:93:63:b0:
         5c:6d:55:4a:4b:38:a7:91:5d:3a:f3:c4:ce:d2:e8:0f:ea:f0:
         5b:62:2a:96:ca:7b:90:9e:dd:fc:9b:77:61:29:98:31:3e:f7:
         02:ed:c5:4d:e2:aa:cc:35:ba:81:a5:ba:e4:6b:ba:89:93:5d:
         cd:ce:1d:e2:b3:7b:90:5f:dc:1c:8b:9a:74:29:af:5f:a4:c6:
         5d:27:ed:4b:99:72:c1:8f:59:e8:0d:ae:a1:d7:20:fd:cb:07:
         4d:4b:da:b7:d2:1a:65:6a:b1:eb:9d:e2:3f:af:a5:a9:8c:5b:
         3d:5a:7f:1d:af:df:80:43:1f:14:22:6a:db:6a:0b:cf:8d:84:
         da:54:ed:b8:79:13:37:8e:7b:e2:94:75:9b:3b:d7:52:12:ec:
         2c:ff:37:dc:f8:64:15:af:da:09:8f:5a:a3:12:64:51:e0:db:
         bf:f0:af:3c:6e:64:80
-----BEGIN CERTIFICATE-----
MIIJBjCCBmWgAwIBAgIBAjAHBgUrzg8DBjCBtzELMAkGA1UEBhMCVVMxETAPBgNV
BAgMCE1hcnlsYW5kMRIwEAYDVQQHDAlCYWx0aW1vcmUxITAfBgNVBAoMGEludGVy
bmV0IFdpZGdpdHMgUHR5IEx0ZDEjMCEGA1UECwwaU2VydmVyIFJlc2VhcmNoIERl
cGFydG1lbnQxGDAWBgNVBAMMD0ludGVybWVkaWF0ZV9DQTEfMB0GCSqGSIb3DQEJ
ARYQdGVzdEBleGFtcGxlLmNvbTAeFw0yMzA1MDcxODE1NTZaFw0yNDA1MDYxODE1
NTZaMIGuMQswCQYDVQQGEwJVUzERMA8GA1UECAwITWFyeWxhbmQxEjAQBgNVBAcM
CUJhbHRpbW9yZTEhMB8GA1UECgwYSW50ZXJuZXQgV2lkZ2l0cyBQdHkgTHRkMSMw
IQYDVQQLDBpTZXJ2ZXIgUmVzZWFyY2ggRGVwYXJ0bWVudDEPMA0GA1UEAwwGU2Vy
dmVyMR8wHQYJKoZIhvcNAQkBFhB0ZXN0QGV4YW1wbGUuY29tMIIDjzAHBgUrzg8D
BgOCA4IACV0NC8Q6TdQ23NXxT0+MaqKEdaRS6ovIqXiRVpVaGH+2egoZZS5xCKcS
Gp/8qFMmlxQ+OVyAy1niqFi59hyaDTWMthqQHTVHDhGK0BsYUi545Jqh+VL6onVJ
HsFXHaAxW+xntsk+YuFJerxFVDUzXoZJntgDkmdkJq0PB/1cJ7vxhEpaDy17ma6x
6qzPcak8qZ9fZmKhozANAI4bVI8y6cdlljVFUbPhJQvI2lfPivW9iW+3PqaNRuEi
dNsoUFKOXTq3XxicYnESxUrrPD4yYB/Y0HT8sqA8AjMMEgvzH8tVOUbmdehOD6XM
r4q6VD+AvfRU0InVoqJKGxrE9y05YyR2E5maddBxC8tuPKap0cwCHXRRdtQT1/q/
Eik17wFTE6yvWEbcUSA+zbvEp9lLvvpJJYT7gJrgZYUvhw6NEyOWUK5obA8TEgVl
N4GQOr2NuowV8eC04z29oM9kntfnNMAwpd8Wh4REPBKbUH5CBg8Xoq+6F8nohYyO
QktoLifb3CgYdlDz6smeqKor2bdDQaQGEtIEgtOfpDcwgNVBhgB2x1tLwXwy74or
0qwlilpW1EI/KMZ0heNhkz6cq3Tp6l0EKj1bCtrxqgRsIImA/Fn0rPCvKlej4YET
Ww9AliQtYOPnfXIAVYJX78+UFewI2hw+rZgjlnnCDRUpe2KwwaoQ0ONqgcS3BEWC
CZAUmaCWg+sQZ5ZEqTkGW1K2fi11sOulRUp5jnBHzJJPHvLhUUk4lLH5ixpLlBKp
x/ON2WM0Ijfjm6WTvQS8K4Gi0bQJ2pK27sFw6G+xxAlEbrwOxRmjsHTa31I3iKOd
1VXE45PuCllm9uHRO785YDkViqgIhmcDUJRdUnBSUmVIa7lczcmDCE6t6dcCRExC
oo4YyF6IJHQgysRrAmISaDaLeg3GhBhdekxDki5VTDH+rPmzAXxgCi/xehiKgISm
r3V2pxkbx8g62lZFPxvNVzwlpqdqMRb8xZERqtlE5nDryCb0vbq7w1fGZhrc9bLZ
KAReDm3hfg/9dYwtc7VJnxEGrCp65Han7PmFDYJGKp1d1C/MClURwuon5XCytSWK
c0UqJbm+uDsEpgjxwcV1qQdweKEELKxWjWkjiPlov3JVIurVm8OwGW2G84onl3rt
QHDR8b9irUJnF5o9Cdy02wrlOSbZQsxp/kzV5eR9QsuZUoW7GVaio4IBMjCCAS4w
DAYDVR0TAQH/BAIwADAdBgNVHQ4EFgQUrKTcvRcnSUglYBADbiIE/IdoNoIwgdwG
A1UdIwSB1DCB0YAUWDoeRbUgm1pZVVlavw7r1a/XdBChgbWkgbIwga8xCzAJBgNV
BAYTAlVTMREwDwYDVQQIDAhNYXJ5bGFuZDESMBAGA1UEBwwJQmFsdGltb3JlMSEw
HwYDVQQKDBhJbnRlcm5ldCBXaWRnaXRzIFB0eSBMdGQxIzAhBgNVBAsMGlNlcnZl
ciBSZXNlYXJjaCBEZXBhcnRtZW50MRAwDgYDVQQDDAdSb290X0NBMR8wHQYJKoZI
hvcNAQkBFhB0ZXN0QGV4YW1wbGUuY29tggEBMAsGA1UdDwQEAwID6DATBgNVHSUE
DDAKBggrBgEFBQcDATAHBgUrzg8DBgOCApAAOfLo+A5B2DsQ6TB9Qr0sw29YmuKe
LpwIPy/ZpAe06QYfZS7K3Wh0iu2KwIiDG2RoqaaxhEPmtn6K38912/nK5UZwvlQP
77JyoLbUb64ODt9vysyZz9gm1D9GrmDhkbfuNjMpVlZkT3IKNtmnjSEHf7twUm8o
sexqn0iuvS5BeVN2dYJjmzwkav959/HITpjct/FXSO8fu5aJOim8zwsvC2JWm3Ru
0N326pbuB4FURG4O51selCBTmY/GTSvKN3M3D4EKwbCPMQiMN1VfNDPWxhFDnp3j
zQkRWqPn9IPrCH9PMfYm1VQoi9fng+zeWqL5DXxVzW82B3FqxE5EbwkbiBU6F9a3
OEZUO+rJPiJO7mo9meFFEdTxoqOsg15KY3O/y7/8U7i73q6WAxhpRoiNvg9/pkfv
dhqWPeCI9dmlkH86PTUbH6JkHI2zaUfn4wWs/SHVYLlEnmQUX+XHAhiH/bE0Hje7
4PaxbOtBom3RsqJ0DJfNXKBFSPfV21Ci+43CGuB82XwsLwJjESWG1oJBTOR07/CS
KF9QqWWyK04O6dyYoTj0xVq/5+aHpocPF0Qoy3xeqAMZJ0Ukwp0wOTOG8i1oztuw
1tydk7KhtIjH4V4xtWRrRfJjOX/LYgtQy7x+OKoSk2OwXG1VSks4p5FdOvPEztLo
D+rwW2Iqlsp7kJ7d/Jt3YSmYMT73Au3FTeKqzDW6gaW65Gu6iZNdzc4d4rN7kF/c
HIuadCmvX6TGXSftS5lywY9Z6A2uodcg/csHTUvat9IaZWqx653iP6+lqYxbPVp/
Ha/fgEMfFCJq22oLz42E2lTtuHkTN4574pR1mzvXUhLsLP833PhkFa/aCY9aoxJk
UeDbv/CvPG5kgA==
-----END CERTIFICATE-----
