Certificate:
    Data:
        Version: 3 (0x2)
        Serial Number: 2 (0x2)
        Signature Algorithm: ecdsa-with-SHA256
        Issuer: C=US, ST=Maryland, L=Baltimore, O=Internet Widgits Pty Ltd, OU=Server Research Department, CN=Intermediate_CA/emailAddress=test@example.com
        Validity
            Not Before: May  4 17:06:00 2023 GMT
            Not After : May  3 17:06:00 2024 GMT
        Subject: C=US, ST=Maryland, L=Baltimore, O=Internet Widgits Pty Ltd, OU=Server Research Department, CN=Server/emailAddress=test@example.com
        Subject Public Key Info:
            Public Key Algorithm: id-ecPublicKey
                Public-Key: (256 bit)
                pub:
                    04:6d:53:36:aa:84:b7:65:e8:50:95:32:04:04:06:
                    d2:3e:3d:42:cc:06:e8:3e:ef:59:c0:7e:3c:9f:e7:
                    3f:b8:2a:94:d7:fc:86:6e:f4:32:1f:83:af:ff:fd:
                    4e:1f:ad:28:ae:c1:64:fa:e5:e0:86:98:7a:e2:19:
                    2b:b5:5c:2c:32
                ASN1 OID: prime256v1
                NIST CURVE: P-256
        X509v3 extensions:
            X509v3 Basic Constraints: critical
                CA:FALSE
            X509v3 Subject Key Identifier: 
                9B:E7:DE:8E:DC:33:D7:4A:56:F2:06:2D:A9:3F:4F:04:66:04:31:51
            X509v3 Authority Key Identifier: 
                keyid:DF:23:C6:D1:1D:24:1A:21:09:B6:68:3F:54:48:32:D5:3E:07:B0:53
                DirName:/C=US/ST=Maryland/L=Baltimore/O=Internet Widgits Pty Ltd/OU=Server Research Department/CN=Root_CA/emailAddress=test@example.com
                serial:01

            X509v3 Key Usage: 
                Digital Signature, Non Repudiation, Key Encipherment, Key Agreement
            X509v3 Extended Key Usage: 
                TLS Web Server Authentication
            Authority Information Access: 
                OCSP - URI:http://ocsp:8080

    Signature Algorithm: ecdsa-with-SHA256
         30:44:02:20:17:99:f3:73:3a:40:f0:d9:8d:2e:74:98:10:1b:
         dc:e9:08:45:23:74:6f:7a:d6:36:57:37:e7:d7:b8:84:d3:0c:
         02:20:17:69:20:29:8b:82:a3:b4:dd:d7:30:5c:ca:bf:10:a1:
         95:8b:0d:ef:7f:c9:31:45:b3:a1:91:2f:4c:30:94:70
-----BEGIN CERTIFICATE-----
MIIDtzCCA16gAwIBAgIBAjAKBggqhkjOPQQDAjCBtzELMAkGA1UEBhMCVVMxETAP
BgNVBAgMCE1hcnlsYW5kMRIwEAYDVQQHDAlCYWx0aW1vcmUxITAfBgNVBAoMGElu
dGVybmV0IFdpZGdpdHMgUHR5IEx0ZDEjMCEGA1UECwwaU2VydmVyIFJlc2VhcmNo
IERlcGFydG1lbnQxGDAWBgNVBAMMD0ludGVybWVkaWF0ZV9DQTEfMB0GCSqGSIb3
DQEJARYQdGVzdEBleGFtcGxlLmNvbTAeFw0yMzA1MDQxNzA2MDBaFw0yNDA1MDMx
NzA2MDBaMIGuMQswCQYDVQQGEwJVUzERMA8GA1UECAwITWFyeWxhbmQxEjAQBgNV
BAcMCUJhbHRpbW9yZTEhMB8GA1UECgwYSW50ZXJuZXQgV2lkZ2l0cyBQdHkgTHRk
MSMwIQYDVQQLDBpTZXJ2ZXIgUmVzZWFyY2ggRGVwYXJ0bWVudDEPMA0GA1UEAwwG
U2VydmVyMR8wHQYJKoZIhvcNAQkBFhB0ZXN0QGV4YW1wbGUuY29tMFkwEwYHKoZI
zj0CAQYIKoZIzj0DAQcDQgAEbVM2qoS3ZehQlTIEBAbSPj1CzAboPu9ZwH48n+c/
uCqU1/yGbvQyH4Ov//1OH60orsFk+uXghph64hkrtVwsMqOCAWAwggFcMAwGA1Ud
EwEB/wQCMAAwHQYDVR0OBBYEFJvn3o7cM9dKVvIGLak/TwRmBDFRMIHcBgNVHSME
gdQwgdGAFN8jxtEdJBohCbZoP1RIMtU+B7BToYG1pIGyMIGvMQswCQYDVQQGEwJV
UzERMA8GA1UECAwITWFyeWxhbmQxEjAQBgNVBAcMCUJhbHRpbW9yZTEhMB8GA1UE
CgwYSW50ZXJuZXQgV2lkZ2l0cyBQdHkgTHRkMSMwIQYDVQQLDBpTZXJ2ZXIgUmVz
ZWFyY2ggRGVwYXJ0bWVudDEQMA4GA1UEAwwHUm9vdF9DQTEfMB0GCSqGSIb3DQEJ
ARYQdGVzdEBleGFtcGxlLmNvbYIBATALBgNVHQ8EBAMCA+gwEwYDVR0lBAwwCgYI
KwYBBQUHAwEwLAYIKwYBBQUHAQEEIDAeMBwGCCsGAQUFBzABhhBodHRwOi8vb2Nz
cDo4MDgwMAoGCCqGSM49BAMCA0cAMEQCIBeZ83M6QPDZjS50mBAb3OkIRSN0b3rW
Nlc359e4hNMMAiAXaSApi4KjtN3XMFzKvxChlYsN73/JMUWzoZEvTDCUcA==
-----END CERTIFICATE-----
