Certificate:
    Data:
        Version: 3 (0x2)
        Serial Number: 3 (0x3)
        Signature Algorithm: ecdsa-with-SHA256
        Issuer: C=US, ST=Maryland, L=Baltimore, O=Internet Widgits Pty Ltd, OU=Server Research Department, CN=Intermediate_CA/emailAddress=test@example.com
        Validity
            Not Before: May  4 17:06:00 2023 GMT
            Not After : May  3 17:06:00 2024 GMT
        Subject: C=US, ST=Maryland, L=Baltimore, O=Internet Widgits Pty Ltd, OU=Server Research Department, CN=User/emailAddress=test@example.com
        Subject Public Key Info:
            Public Key Algorithm: id-ecPublicKey
                Public-Key: (256 bit)
                pub:
                    04:1c:f5:72:53:77:df:34:6c:64:d3:1c:9d:ac:98:
                    9d:f4:60:3e:b5:65:45:88:93:a8:6b:c7:54:52:96:
                    75:7d:44:7f:b6:b5:ea:1a:57:cc:f5:ff:dd:f8:0d:
                    3c:82:3d:7e:47:9b:d9:3b:f0:5d:a3:72:4c:62:0e:
                    13:cb:f4:4e:56
                ASN1 OID: prime256v1
                NIST CURVE: P-256
        X509v3 extensions:
            X509v3 Basic Constraints: critical
                CA:FALSE
            X509v3 Subject Key Identifier: 
                01:4D:62:75:82:25:41:AF:A2:9D:D4:A2:B1:0F:5C:25:5C:B3:FD:03
            X509v3 Authority Key Identifier: 
                keyid:DF:23:C6:D1:1D:24:1A:21:09:B6:68:3F:54:48:32:D5:3E:07:B0:53
                DirName:/C=US/ST=Maryland/L=Baltimore/O=Internet Widgits Pty Ltd/OU=Server Research Department/CN=Root_CA/emailAddress=test@example.com
                serial:01

            X509v3 Key Usage: 
                Digital Signature, Non Repudiation, Key Encipherment
            X509v3 Extended Key Usage: 
                TLS Web Client Authentication
            Authority Information Access: 
                OCSP - URI:http://ocsp:8080

    Signature Algorithm: ecdsa-with-SHA256
         30:45:02:21:00:e2:42:6d:be:1c:8d:93:af:b7:3e:0c:84:cf:
         3a:8b:bd:32:f0:dc:7e:69:4d:ec:c6:4c:3d:a4:7b:98:09:6e:
         9d:02:20:56:d5:fb:24:5d:24:35:9a:fd:67:07:fb:25:99:54:
         e5:14:8c:24:50:0c:8b:af:cd:27:3e:53:74:4c:62:2e:ec
-----BEGIN CERTIFICATE-----
MIIDtjCCA1ygAwIBAgIBAzAKBggqhkjOPQQDAjCBtzELMAkGA1UEBhMCVVMxETAP
BgNVBAgMCE1hcnlsYW5kMRIwEAYDVQQHDAlCYWx0aW1vcmUxITAfBgNVBAoMGElu
dGVybmV0IFdpZGdpdHMgUHR5IEx0ZDEjMCEGA1UECwwaU2VydmVyIFJlc2VhcmNo
IERlcGFydG1lbnQxGDAWBgNVBAMMD0ludGVybWVkaWF0ZV9DQTEfMB0GCSqGSIb3
DQEJARYQdGVzdEBleGFtcGxlLmNvbTAeFw0yMzA1MDQxNzA2MDBaFw0yNDA1MDMx
NzA2MDBaMIGsMQswCQYDVQQGEwJVUzERMA8GA1UECAwITWFyeWxhbmQxEjAQBgNV
BAcMCUJhbHRpbW9yZTEhMB8GA1UECgwYSW50ZXJuZXQgV2lkZ2l0cyBQdHkgTHRk
MSMwIQYDVQQLDBpTZXJ2ZXIgUmVzZWFyY2ggRGVwYXJ0bWVudDENMAsGA1UEAwwE
VXNlcjEfMB0GCSqGSIb3DQEJARYQdGVzdEBleGFtcGxlLmNvbTBZMBMGByqGSM49
AgEGCCqGSM49AwEHA0IABBz1clN33zRsZNMcnayYnfRgPrVlRYiTqGvHVFKWdX1E
f7a16hpXzPX/3fgNPII9fkeb2TvwXaNyTGIOE8v0TlajggFgMIIBXDAMBgNVHRMB
Af8EAjAAMB0GA1UdDgQWBBQBTWJ1giVBr6Kd1KKxD1wlXLP9AzCB3AYDVR0jBIHU
MIHRgBTfI8bRHSQaIQm2aD9USDLVPgewU6GBtaSBsjCBrzELMAkGA1UEBhMCVVMx
ETAPBgNVBAgMCE1hcnlsYW5kMRIwEAYDVQQHDAlCYWx0aW1vcmUxITAfBgNVBAoM
GEludGVybmV0IFdpZGdpdHMgUHR5IEx0ZDEjMCEGA1UECwwaU2VydmVyIFJlc2Vh
cmNoIERlcGFydG1lbnQxEDAOBgNVBAMMB1Jvb3RfQ0ExHzAdBgkqhkiG9w0BCQEW
EHRlc3RAZXhhbXBsZS5jb22CAQEwCwYDVR0PBAQDAgXgMBMGA1UdJQQMMAoGCCsG
AQUFBwMCMCwGCCsGAQUFBwEBBCAwHjAcBggrBgEFBQcwAYYQaHR0cDovL29jc3A6
ODA4MDAKBggqhkjOPQQDAgNIADBFAiEA4kJtvhyNk6+3PgyEzzqLvTLw3H5pTezG
TD2ke5gJbp0CIFbV+yRdJDWa/WcH+yWZVOUUjCRQDIuvzSc+U3RMYi7s
-----END CERTIFICATE-----
