Certificate:
    Data:
        Version: 3 (0x2)
        Serial Number: 1 (0x1)
        Signature Algorithm: falcon512
        Issuer: C=US, ST=Maryland, L=Baltimore, O=Internet Widgits Pty Ltd, OU=Server Research Department, CN=Root_CA/emailAddress=test@example.com
        Validity
            Not Before: May  7 18:15:56 2023 GMT
            Not After : May  6 18:15:56 2024 GMT
        Subject: C=US, ST=Maryland, L=Baltimore, O=Internet Widgits Pty Ltd, OU=Server Research Department, CN=Intermediate_CA/emailAddress=test@example.com
        Subject Public Key Info:
            Public Key Algorithm: falcon512
                falcon512 Public-Key:
                pub:
                    09:08:00:de:c7:33:9f:0c:5d:58:1b:25:1d:5c:81:
                    44:7a:de:97:a1:44:94:96:a2:73:c4:32:8d:a5:b6:
                    bd:68:72:fd:ca:25:98:dd:97:9a:5f:86:96:2a:c0:
                    9e:a4:ad:60:21:3c:34:ba:e5:b8:59:a8:8d:fa:ee:
                    46:91:d3:35:67:74:e3:99:1f:a9:fd:63:42:72:c4:
                    c1:69:36:87:78:71:94:db:9a:f4:60:a9:b7:b0:37:
                    81:49:14:ae:e7:78:58:af:0e:83:54:51:e4:4e:24:
                    e4:b7:fd:bb:d3:b9:a7:32:2c:a5:83:29:62:5e:41:
                    20:21:bf:17:f8:21:96:0b:e0:98:19:08:98:43:42:
                    cd:9f:53:70:17:88:9b:9a:cb:fa:3c:48:a8:8d:9c:
                    7f:d3:82:55:bd:8a:a4:29:39:f4:95:42:8f:2c:95:
                    65:d0:a3:a2:1b:ac:45:83:d3:01:ac:60:72:cf:ea:
                    67:96:99:0f:c9:3e:e0:1d:1c:e2:4b:25:6a:ba:b2:
                    0e:43:70:9d:f4:79:2c:a5:53:7f:72:27:a3:cb:43:
                    76:2e:1e:da:87:12:60:67:a1:b1:79:78:a5:97:c7:
                    77:64:56:a9:6a:5d:33:7b:16:12:95:f8:9e:78:58:
                    08:9a:24:96:d7:e1:bf:9c:25:cb:85:98:31:02:09:
                    f9:c8:f5:84:1d:68:58:03:a7:80:93:f1:13:e1:e7:
                    00:8b:d4:98:67:e1:cd:00:d0:87:d2:40:f5:b8:a2:
                    77:e0:62:13:32:77:68:49:61:08:11:ce:5a:85:8e:
                    d3:9d:bd:fc:36:d2:03:dd:67:5f:28:1f:f9:06:26:
                    d2:29:76:3e:d8:1d:5a:a1:09:31:b4:0a:b6:58:8c:
                    04:04:9d:29:fa:63:87:18:19:ab:6a:da:c5:e7:b0:
                    a9:59:40:b4:93:4d:46:31:83:24:27:9d:00:64:38:
                    20:82:c6:a5:22:2b:3e:cb:6b:9e:58:cf:85:91:e7:
                    55:0f:17:91:31:ee:1f:d6:2f:ad:a5:95:6d:0b:a3:
                    91:ea:cf:bf:35:fb:a3:1f:d9:e0:7f:18:25:14:d5:
                    5a:7b:04:45:39:2b:8a:0f:b5:a7:5a:0d:47:95:0b:
                    7b:15:4e:6d:73:af:60:0a:02:55:fe:c3:cf:96:70:
                    a0:46:a6:e6:b5:81:5e:a7:51:5d:90:c0:27:e9:8e:
                    d2:14:36:1c:55:f6:5c:28:df:85:a7:16:da:2d:f6:
                    57:ca:9b:66:c6:18:05:a5:01:a8:c1:a7:1f:89:7b:
                    d3:6c:80:b8:85:5c:10:00:83:d7:24:44:9a:52:87:
                    6f:5e:7d:25:a1:9d:67:bd:a8:cb:2c:ad:7d:94:93:
                    04:d0:5f:55:fd:81:a1:6a:f0:a3:c2:26:c6:4d:6d:
                    f6:b5:c6:74:b2:37:d8:60:79:d5:aa:c7:39:49:86:
                    6d:11:eb:99:d0:23:d7:9d:19:68:bb:81:cf:c4:61:
                    25:a4:19:a9:57:ae:9e:52:02:95:b8:46:79:7e:7a:
                    5c:f7:93:94:09:b7:58:8e:86:b4:41:06:5b:f2:74:
                    09:17:e9:b7:3f:aa:98:59:8d:11:c5:69:fd:12:88:
                    c2:cf:09:72:4d:6a:c1:88:c1:fc:94:22:7a:e4:45:
                    a3:52:08:41:3e:c4:42:da:3c:b1:bd:ee:68:ba:0a:
                    63:ba:98:d1:9b:41:88:5b:37:14:96:f6:a5:98:c7:
                    2f:ed:b6:49:23:aa:4b:92:da:f5:25:53:d2:c4:4e:
                    f9:84:b0:52:85:ff:9d:35:01:1b:f4:21:96:3f:89:
                    27:a8:4a:22:e8:2f:cc:86:f1:e7:69:42:1a:c0:50:
                    92:79:60:d2:1f:9a:9a:52:ca:cb:e2:a8:bd:63:61:
                    87:82:5c:bf:86:2a:c9:b1:89:65:81:9e:d1:d3:2b:
                    85:50:81:00:39:a1:22:a6:ab:2a:a6:17:c7:fb:cd:
                    6d:9e:2e:16:21:2a:1c:5c:87:52:81:22:0c:a8:5f:
                    3d:34:1b:35:47:54:de:be:74:34:da:a4:42:80:93:
                    ba:a0:e2:76:1a:b9:56:d2:21:e4:39:2b:bf:88:70:
                    f0:69:04:e5:53:87:24:20:e7:22:8a:f7:5b:e4:b5:
                    53:de:2d:50:24:aa:14:18:35:d1:a7:20:6d:b1:c4:
                    9d:e8:31:75:9e:bb:6a:fe:d3:a8:84:65:65:c6:c7:
                    8d:e8:76:2d:9e:90:72:e2:4c:84:74:5e:81:a7:2f:
                    6c:8b:d9:04:99:7d:13:09:3a:7c:2e:b6:7d:d7:cd:
                    70:66:40:c4:68:6b:e2:8b:4c:e0:d6:dc:d7:90:0e:
                    92:23:85:e2:08:26:a9:84:d9:db:33:11:3f:1d:a1:
                    b3:93:3e:a6:0f:86:99:27:b2:00:d4:bd
        X509v3 extensions:
            X509v3 Basic Constraints: critical
                CA:TRUE
            X509v3 Subject Key Identifier: 
                58:3A:1E:45:B5:20:9B:5A:59:55:59:5A:BF:0E:EB:D5:AF:D7:74:10
            X509v3 Authority Key Identifier: 
                keyid:69:5C:AE:2B:64:FE:D8:98:04:54:CB:13:F0:BD:D4:C8:4D:9F:5B:E7
                DirName:/C=US/ST=Maryland/L=Baltimore/O=Internet Widgits Pty Ltd/OU=Server Research Department/CN=Root_CA/emailAddress=test@example.com
                serial:33:9F:C9:FA:4B:AE:B5:27:6C:2E:C7:55:D6:BF:26:27:92:69:4B:A5

            X509v3 Key Usage: critical
                Certificate Sign, CRL Sign
    Signature Algorithm: falcon512
         39:35:09:0d:15:27:4b:6c:b6:83:1f:8b:f0:b4:e3:08:f8:c2:
         62:ee:11:ad:f1:83:f6:7a:a0:4c:f9:2d:da:e5:e6:c1:5e:39:
         3b:54:15:63:73:47:ea:15:3b:b4:ad:60:44:09:b8:c7:b6:4e:
         bf:ef:c9:35:df:21:30:3b:e6:c7:08:49:6a:b1:a7:2d:ff:69:
         26:52:fc:f4:4a:09:6e:2f:2c:93:d1:25:c6:2b:bc:96:09:1e:
         fa:a3:f3:48:f2:52:9d:eb:31:a8:66:f3:dd:b2:db:32:2f:3c:
         7d:0b:63:15:ee:96:d2:21:e2:79:de:bf:2e:37:7e:d5:0c:cf:
         6d:d5:c1:28:98:95:30:50:d1:b7:13:68:4c:d3:e3:7e:87:28:
         e6:af:b2:ad:33:b1:7c:db:c0:6a:31:fe:dc:51:84:5b:f7:50:
         a8:d5:bd:c1:a3:15:fe:5f:f9:dc:da:3d:9e:a4:49:20:d3:af:
         db:1e:aa:4e:d9:2f:b0:1a:e7:6d:04:a5:1b:98:3a:7f:ce:60:
         99:a6:13:6d:b4:3c:72:7f:25:11:af:3a:ec:03:8f:75:c4:f4:
         a8:08:21:9b:ea:9a:0e:46:17:fe:a1:90:43:e1:a5:46:2d:67:
         fb:e1:55:8c:ea:33:0d:87:06:38:67:32:fd:59:0b:0c:8d:70:
         ee:dd:3e:5d:9f:26:e8:b3:ae:68:df:5b:64:de:66:0d:72:84:
         1e:7f:cf:59:2d:c6:31:fc:68:e4:f1:91:ed:27:bc:a5:65:a4:
         8a:d7:37:11:75:2a:9f:3e:e8:cb:99:99:2b:2d:44:de:cf:91:
         a6:d7:43:21:6b:bb:b6:86:50:cd:20:f5:ba:22:7e:e6:45:fd:
         68:6a:38:f5:fa:9b:4b:0c:9c:cd:24:f0:b4:a9:89:ce:7d:95:
         ac:1f:26:3f:13:d5:ec:ca:85:00:c2:d7:88:af:2a:1d:48:d7:
         49:a5:26:06:d4:68:d3:d4:df:14:60:64:c3:d3:66:a7:5d:f4:
         d4:5e:f5:1b:eb:3b:79:5c:07:91:60:81:4a:b5:70:94:d2:67:
         d7:44:fd:df:39:65:98:8c:48:19:2c:e1:10:43:d3:4d:39:ce:
         78:9f:9b:a0:cc:42:a0:f7:bc:9b:cb:e7:7f:21:31:1d:05:df:
         86:4d:da:e8:37:a1:52:85:16:9d:9f:5f:5d:08:de:b4:87:11:
         c7:f9:9a:fb:95:57:bd:01:ca:fd:53:53:75:d0:67:58:28:b8:
         c4:18:e6:d7:43:4c:81:78:ea:1b:49:4f:b3:96:fb:33:ad:7d:
         51:12:6f:96:f8:eb:03:37:91:3a:5c:b7:11:74:69:56:f2:89:
         95:3c:52:b3:d6:30:f7:e8:a7:eb:cb:f6:e8:f1:b3:d6:3c:ee:
         b2:4a:c0:b2:ec:52:29:0a:6e:af:9a:22:7a:75:a6:2c:f6:7d:
         84:71:50:8e:8b:af:61:f0:c1:f5:bd:7b:fe:5f:d4:fe:9a:15:
         9b:49:ea:ec:c1:3b:5c:65:63:1e:ae:43:10:6e:91:af:49:e0:
         69:dc:01:31:e5:c6:ac:ca:ce:25:0b:ec:11:d3:3d:87:e3:b0:
         50:bc:fe:57:f8:e3:57:2d:5c:f7:36:bc:f8:a5:14:53:b1:b3:
         58:10:78:9b:8b:39:a2:e0:7f:92:4f:8d:ba:0b:1e:d9:71:94:
         0d:4a:51:95:b0:55:d7:55:64:a8:cc:6d:b3:83:c1:0a:95:95:
         2e:2a:c7:da:80
-----BEGIN CERTIFICATE-----
MIIJCTCCBmqgAwIBAgIBATAHBgUrzg8DBjCBrzELMAkGA1UEBhMCVVMxETAPBgNV
BAgMCE1hcnlsYW5kMRIwEAYDVQQHDAlCYWx0aW1vcmUxITAfBgNVBAoMGEludGVy
bmV0IFdpZGdpdHMgUHR5IEx0ZDEjMCEGA1UECwwaU2VydmVyIFJlc2VhcmNoIERl
cGFydG1lbnQxEDAOBgNVBAMMB1Jvb3RfQ0ExHzAdBgkqhkiG9w0BCQEWEHRlc3RA
ZXhhbXBsZS5jb20wHhcNMjMwNTA3MTgxNTU2WhcNMjQwNTA2MTgxNTU2WjCBtzEL
MAkGA1UEBhMCVVMxETAPBgNVBAgMCE1hcnlsYW5kMRIwEAYDVQQHDAlCYWx0aW1v
cmUxITAfBgNVBAoMGEludGVybmV0IFdpZGdpdHMgUHR5IEx0ZDEjMCEGA1UECwwa
U2VydmVyIFJlc2VhcmNoIERlcGFydG1lbnQxGDAWBgNVBAMMD0ludGVybWVkaWF0
ZV9DQTEfMB0GCSqGSIb3DQEJARYQdGVzdEBleGFtcGxlLmNvbTCCA48wBwYFK84P
AwYDggOCAAkIAN7HM58MXVgbJR1cgUR63pehRJSWonPEMo2ltr1ocv3KJZjdl5pf
hpYqwJ6krWAhPDS65bhZqI367kaR0zVndOOZH6n9Y0JyxMFpNod4cZTbmvRgqbew
N4FJFK7neFivDoNUUeROJOS3/bvTuacyLKWDKWJeQSAhvxf4IZYL4JgZCJhDQs2f
U3AXiJuay/o8SKiNnH/TglW9iqQpOfSVQo8slWXQo6IbrEWD0wGsYHLP6meWmQ/J
PuAdHOJLJWq6sg5DcJ30eSylU39yJ6PLQ3YuHtqHEmBnobF5eKWXx3dkVqlqXTN7
FhKV+J54WAiaJJbX4b+cJcuFmDECCfnI9YQdaFgDp4CT8RPh5wCL1Jhn4c0A0IfS
QPW4onfgYhMyd2hJYQgRzlqFjtOdvfw20gPdZ18oH/kGJtIpdj7YHVqhCTG0CrZY
jAQEnSn6Y4cYGatq2sXnsKlZQLSTTUYxgyQnnQBkOCCCxqUiKz7La55Yz4WR51UP
F5Ex7h/WL62llW0Lo5Hqz781+6Mf2eB/GCUU1Vp7BEU5K4oPtadaDUeVC3sVTm1z
r2AKAlX+w8+WcKBGpua1gV6nUV2QwCfpjtIUNhxV9lwo34WnFtot9lfKm2bGGAWl
AajBpx+Je9NsgLiFXBAAg9ckRJpSh29efSWhnWe9qMssrX2UkwTQX1X9gaFq8KPC
JsZNbfa1xnSyN9hgedWqxzlJhm0R65nQI9edGWi7gc/EYSWkGalXrp5SApW4Rnl+
elz3k5QJt1iOhrRBBlvydAkX6bc/qphZjRHFaf0SiMLPCXJNasGIwfyUInrkRaNS
CEE+xELaPLG97mi6CmO6mNGbQYhbNxSW9qWYxy/ttkkjqkuS2vUlU9LETvmEsFKF
/501ARv0IZY/iSeoSiLoL8yG8edpQhrAUJJ5YNIfmppSysviqL1jYYeCXL+GKsmx
iWWBntHTK4VQgQA5oSKmqyqmF8f7zW2eLhYhKhxch1KBIgyoXz00GzVHVN6+dDTa
pEKAk7qg4nYauVbSIeQ5K7+IcPBpBOVThyQg5yKK91vktVPeLVAkqhQYNdGnIG2x
xJ3oMXWeu2r+06iEZWXGx43odi2ekHLiTIR0XoGnL2yL2QSZfRMJOnwutn3XzXBm
QMRoa+KLTODW3NeQDpIjheIIJqmE2dszET8dobOTPqYPhpknsgDUvaOCATYwggEy
MA8GA1UdEwEB/wQFMAMBAf8wHQYDVR0OBBYEFFg6HkW1IJtaWVVZWr8O69Wv13QQ
MIHvBgNVHSMEgecwgeSAFGlcritk/tiYBFTLE/C91MhNn1vnoYG1pIGyMIGvMQsw
CQYDVQQGEwJVUzERMA8GA1UECAwITWFyeWxhbmQxEjAQBgNVBAcMCUJhbHRpbW9y
ZTEhMB8GA1UECgwYSW50ZXJuZXQgV2lkZ2l0cyBQdHkgTHRkMSMwIQYDVQQLDBpT
ZXJ2ZXIgUmVzZWFyY2ggRGVwYXJ0bWVudDEQMA4GA1UEAwwHUm9vdF9DQTEfMB0G
CSqGSIb3DQEJARYQdGVzdEBleGFtcGxlLmNvbYIUM5/J+kuutSdsLsdV1r8mJ5Jp
S6UwDgYDVR0PAQH/BAQDAgEGMAcGBSvODwMGA4ICjgA5NQkNFSdLbLaDH4vwtOMI
+MJi7hGt8YP2eqBM+S3a5ebBXjk7VBVjc0fqFTu0rWBECbjHtk6/78k13yEwO+bH
CElqsact/2kmUvz0SgluLyyT0SXGK7yWCR76o/NI8lKd6zGoZvPdstsyLzx9C2MV
7pbSIeJ53r8uN37VDM9t1cEomJUwUNG3E2hM0+N+hyjmr7KtM7F828BqMf7cUYRb
91Co1b3BoxX+X/nc2j2epEkg06/bHqpO2S+wGudtBKUbmDp/zmCZphNttDxyfyUR
rzrsA491xPSoCCGb6poORhf+oZBD4aVGLWf74VWM6jMNhwY4ZzL9WQsMjXDu3T5d
nybos65o31tk3mYNcoQef89ZLcYx/Gjk8ZHtJ7ylZaSK1zcRdSqfPujLmZkrLUTe
z5Gm10Mha7u2hlDNIPW6In7mRf1oajj1+ptLDJzNJPC0qYnOfZWsHyY/E9XsyoUA
wteIryodSNdJpSYG1GjT1N8UYGTD02anXfTUXvUb6zt5XAeRYIFKtXCU0mfXRP3f
OWWYjEgZLOEQQ9NNOc54n5ugzEKg97yby+d/ITEdBd+GTdroN6FShRadn19dCN60
hxHH+Zr7lVe9Acr9U1N10GdYKLjEGObXQ0yBeOobSU+zlvszrX1REm+W+OsDN5E6
XLcRdGlW8omVPFKz1jD36Kfry/bo8bPWPO6ySsCy7FIpCm6vmiJ6daYs9n2EcVCO
i69h8MH1vXv+X9T+mhWbSerswTtcZWMerkMQbpGvSeBp3AEx5casys4lC+wR0z2H
47BQvP5X+ONXLVz3Nrz4pRRTsbNYEHibizmi4H+ST426Cx7ZcZQNSlGVsFXXVWSo
zG2zg8EKlZUuKsfagA==
-----END CERTIFICATE-----
