Certificate:
    Data:
        Version: 3 (0x2)
        Serial Number: 3 (0x3)
        Signature Algorithm: ED25519
        Issuer: C=US, ST=Maryland, L=Baltimore, O=Internet Widgits Pty Ltd, OU=Server Research Department, CN=Intermediate_CA/emailAddress=test@example.com
        Validity
            Not Before: May  7 18:15:56 2023 GMT
            Not After : May  6 18:15:56 2024 GMT
        Subject: C=US, ST=Maryland, L=Baltimore, O=Internet Widgits Pty Ltd, OU=Server Research Department, CN=User/emailAddress=test@example.com
        Subject Public Key Info:
            Public Key Algorithm: ED25519
                ED25519 Public-Key:
                pub:
                    e1:90:7b:40:8c:d9:1c:1b:e5:00:8a:ae:73:1d:75:
                    b9:25:4c:59:4b:f2:63:88:81:f4:a4:fe:7d:97:17:
                    09:18
        X509v3 extensions:
            X509v3 Basic Constraints: critical
                CA:FALSE
            X509v3 Subject Key Identifier: 
                7D:FA:60:2D:04:78:85:52:00:FC:6F:EC:15:B1:A8:56:30:0D:8B:BC
            X509v3 Authority Key Identifier: 
                keyid:8E:10:89:65:88:DF:F4:97:BC:7C:5C:A4:4C:30:0F:50:6A:79:D9:48
                DirName:/C=US/ST=Maryland/L=Baltimore/O=Internet Widgits Pty Ltd/OU=Server Research Department/CN=Root_CA/emailAddress=test@example.com
                serial:01

            X509v3 Key Usage: 
                Digital Signature, Non Repudiation, Key Encipherment
            X509v3 Extended Key Usage: 
                TLS Web Client Authentication
    Signature Algorithm: ED25519
         56:07:a3:ce:b8:1c:c2:86:a4:d9:bb:2f:a2:9f:f2:aa:82:75:
         f2:8d:fe:75:0f:ab:b9:e5:30:b0:4c:82:7d:51:05:ae:6a:99:
         0c:be:65:ba:fa:c4:96:9c:ba:65:21:5c:e1:7a:94:01:c2:db:
         91:ac:23:9b:0b:30:1e:7d:e2:0a
-----BEGIN CERTIFICATE-----
MIIDSDCCAvqgAwIBAgIBAzAFBgMrZXAwgbcxCzAJBgNVBAYTAlVTMREwDwYDVQQI
DAhNYXJ5bGFuZDESMBAGA1UEBwwJQmFsdGltb3JlMSEwHwYDVQQKDBhJbnRlcm5l
dCBXaWRnaXRzIFB0eSBMdGQxIzAhBgNVBAsMGlNlcnZlciBSZXNlYXJjaCBEZXBh
cnRtZW50MRgwFgYDVQQDDA9JbnRlcm1lZGlhdGVfQ0ExHzAdBgkqhkiG9w0BCQEW
EHRlc3RAZXhhbXBsZS5jb20wHhcNMjMwNTA3MTgxNTU2WhcNMjQwNTA2MTgxNTU2
WjCBrDELMAkGA1UEBhMCVVMxETAPBgNVBAgMCE1hcnlsYW5kMRIwEAYDVQQHDAlC
YWx0aW1vcmUxITAfBgNVBAoMGEludGVybmV0IFdpZGdpdHMgUHR5IEx0ZDEjMCEG
A1UECwwaU2VydmVyIFJlc2VhcmNoIERlcGFydG1lbnQxDTALBgNVBAMMBFVzZXIx
HzAdBgkqhkiG9w0BCQEWEHRlc3RAZXhhbXBsZS5jb20wKjAFBgMrZXADIQDhkHtA
jNkcG+UAiq5zHXW5JUxZS/JjiIH0pP59lxcJGKOCATIwggEuMAwGA1UdEwEB/wQC
MAAwHQYDVR0OBBYEFH36YC0EeIVSAPxv7BWxqFYwDYu8MIHcBgNVHSMEgdQwgdGA
FI4QiWWI3/SXvHxcpEwwD1BqedlIoYG1pIGyMIGvMQswCQYDVQQGEwJVUzERMA8G
A1UECAwITWFyeWxhbmQxEjAQBgNVBAcMCUJhbHRpbW9yZTEhMB8GA1UECgwYSW50
ZXJuZXQgV2lkZ2l0cyBQdHkgTHRkMSMwIQYDVQQLDBpTZXJ2ZXIgUmVzZWFyY2gg
RGVwYXJ0bWVudDEQMA4GA1UEAwwHUm9vdF9DQTEfMB0GCSqGSIb3DQEJARYQdGVz
dEBleGFtcGxlLmNvbYIBATALBgNVHQ8EBAMCBeAwEwYDVR0lBAwwCgYIKwYBBQUH
AwIwBQYDK2VwA0EAVgejzrgcwoak2bsvop/yqoJ18o3+dQ+rueUwsEyCfVEFrmqZ
DL5luvrElpy6ZSFc4XqUAcLbkawjmwswHn3iCg==
-----END CERTIFICATE-----
