Certificate:
    Data:
        Version: 3 (0x2)
        Serial Number: 1 (0x1)
        Signature Algorithm: ecdsa-with-SHA256
        Issuer: C=US, ST=Maryland, L=Baltimore, O=Internet Widgits Pty Ltd, OU=Server Research Department, CN=Root_CA/emailAddress=test@example.com
        Validity
            Not Before: May  7 18:15:56 2023 GMT
            Not After : May  6 18:15:56 2024 GMT
        Subject: C=US, ST=Maryland, L=Baltimore, O=Internet Widgits Pty Ltd, OU=Server Research Department, CN=Intermediate_CA/emailAddress=test@example.com
        Subject Public Key Info:
            Public Key Algorithm: id-ecPublicKey
                Public-Key: (256 bit)
                pub:
                    04:6f:fa:dd:00:a5:49:d9:da:b9:46:ca:dc:c9:5d:
                    50:6d:ff:85:35:d0:2b:60:a3:34:d2:2a:5d:4b:4d:
                    bb:89:3d:7d:db:eb:19:47:23:63:8d:50:ab:f0:de:
                    7b:f2:ec:08:f2:9a:8b:dc:ba:a4:4d:fe:0d:06:e6:
                    ba:00:6a:ad:8a
                ASN1 OID: prime256v1
                NIST CURVE: P-256
        X509v3 extensions:
            X509v3 Basic Constraints: critical
                CA:TRUE
            X509v3 Subject Key Identifier: 
                01:53:52:CB:2D:E8:83:CE:E3:16:ED:F2:BF:2D:38:34:9D:55:49:08
            X509v3 Authority Key Identifier: 
                keyid:51:61:EA:A6:04:97:7F:25:FD:84:BA:6C:48:46:ED:F2:18:72:78:AF
                DirName:/C=US/ST=Maryland/L=Baltimore/O=Internet Widgits Pty Ltd/OU=Server Research Department/CN=Root_CA/emailAddress=test@example.com
                serial:46:E1:4D:59:F2:2E:CB:71:30:C8:58:82:BA:C2:84:D2:3F:0B:71:87

            X509v3 Key Usage: critical
                Certificate Sign, CRL Sign
    Signature Algorithm: ecdsa-with-SHA256
         30:46:02:21:00:99:b8:1c:eb:08:10:68:d2:dc:e5:1a:29:82:
         42:62:38:f0:e0:d7:1a:6e:93:07:37:9f:9c:c4:d7:e8:41:06:
         bd:02:21:00:f1:e7:d5:29:1b:c1:5c:bc:a6:35:6c:c9:fa:01:
         7a:01:03:e3:d7:da:09:5f:95:a0:15:53:af:86:d4:e3:fa:ac
-----BEGIN CERTIFICATE-----
MIIDkDCCAzWgAwIBAgIBATAKBggqhkjOPQQDAjCBrzELMAkGA1UEBhMCVVMxETAP
BgNVBAgMCE1hcnlsYW5kMRIwEAYDVQQHDAlCYWx0aW1vcmUxITAfBgNVBAoMGElu
dGVybmV0IFdpZGdpdHMgUHR5IEx0ZDEjMCEGA1UECwwaU2VydmVyIFJlc2VhcmNo
IERlcGFydG1lbnQxEDAOBgNVBAMMB1Jvb3RfQ0ExHzAdBgkqhkiG9w0BCQEWEHRl
c3RAZXhhbXBsZS5jb20wHhcNMjMwNTA3MTgxNTU2WhcNMjQwNTA2MTgxNTU2WjCB
tzELMAkGA1UEBhMCVVMxETAPBgNVBAgMCE1hcnlsYW5kMRIwEAYDVQQHDAlCYWx0
aW1vcmUxITAfBgNVBAoMGEludGVybmV0IFdpZGdpdHMgUHR5IEx0ZDEjMCEGA1UE
CwwaU2VydmVyIFJlc2VhcmNoIERlcGFydG1lbnQxGDAWBgNVBAMMD0ludGVybWVk
aWF0ZV9DQTEfMB0GCSqGSIb3DQEJARYQdGVzdEBleGFtcGxlLmNvbTBZMBMGByqG
SM49AgEGCCqGSM49AwEHA0IABG/63QClSdnauUbK3MldUG3/hTXQK2CjNNIqXUtN
u4k9fdvrGUcjY41Qq/Dee/LsCPKai9y6pE3+DQbmugBqrYqjggE2MIIBMjAPBgNV
HRMBAf8EBTADAQH/MB0GA1UdDgQWBBQBU1LLLeiDzuMW7fK/LTg0nVVJCDCB7wYD
VR0jBIHnMIHkgBRRYeqmBJd/Jf2EumxIRu3yGHJ4r6GBtaSBsjCBrzELMAkGA1UE
BhMCVVMxETAPBgNVBAgMCE1hcnlsYW5kMRIwEAYDVQQHDAlCYWx0aW1vcmUxITAf
BgNVBAoMGEludGVybmV0IFdpZGdpdHMgUHR5IEx0ZDEjMCEGA1UECwwaU2VydmVy
IFJlc2VhcmNoIERlcGFydG1lbnQxEDAOBgNVBAMMB1Jvb3RfQ0ExHzAdBgkqhkiG
9w0BCQEWEHRlc3RAZXhhbXBsZS5jb22CFEbhTVnyLstxMMhYgrrChNI/C3GHMA4G
A1UdDwEB/wQEAwIBBjAKBggqhkjOPQQDAgNJADBGAiEAmbgc6wgQaNLc5RopgkJi
OPDg1xpukwc3n5zE1+hBBr0CIQDx59UpG8FcvKY1bMn6AXoBA+PX2glflaAVU6+G
1OP6rA==
-----END CERTIFICATE-----
