Certificate:
    Data:
        Version: 3 (0x2)
        Serial Number: 1 (0x1)
        Signature Algorithm: ED25519
        Issuer: C=US, ST=Maryland, L=Baltimore, O=Internet Widgits Pty Ltd, OU=Server Research Department, CN=Root_CA/emailAddress=test@example.com
        Validity
            Not Before: May  4 17:06:00 2023 GMT
            Not After : May  3 17:06:00 2024 GMT
        Subject: C=US, ST=Maryland, L=Baltimore, O=Internet Widgits Pty Ltd, OU=Server Research Department, CN=Intermediate_CA/emailAddress=test@example.com
        Subject Public Key Info:
            Public Key Algorithm: ED25519
                ED25519 Public-Key:
                pub:
                    b0:b1:a7:d0:20:e3:24:15:14:27:54:cc:87:78:02:
                    54:7e:fc:ed:40:91:b4:9e:4c:a4:f8:1c:18:8c:4e:
                    34:b9
        X509v3 extensions:
            X509v3 Basic Constraints: critical
                CA:TRUE
            X509v3 Subject Key Identifier: 
                47:D3:55:01:8C:82:01:D0:DC:96:8D:D3:2D:90:9F:6D:42:A1:3F:80
            X509v3 Authority Key Identifier: 
                keyid:65:56:70:DC:1F:B4:E2:86:BF:34:36:2F:A8:28:A8:4B:C0:9E:FF:72
                DirName:/C=US/ST=Maryland/L=Baltimore/O=Internet Widgits Pty Ltd/OU=Server Research Department/CN=Root_CA/emailAddress=test@example.com
                serial:67:36:D6:84:A6:FA:31:CD:F8:0B:A4:2F:F8:1A:46:EC:78:C2:95:ED

            X509v3 Key Usage: critical
                Certificate Sign, CRL Sign
            Authority Information Access: 
                OCSP - URI:http://ocsp:8080

    Signature Algorithm: ED25519
         a2:a7:5b:59:92:e7:8e:9c:4f:7a:e0:e0:c2:53:5a:47:ec:73:
         9a:de:33:d5:56:56:4a:b5:a2:24:9e:b9:ab:6c:fe:9e:34:51:
         35:3f:ea:4a:c9:33:2d:f3:03:19:0f:e7:36:7f:8c:e6:c4:fc:
         4a:ac:df:64:0b:08:ab:40:50:02
-----BEGIN CERTIFICATE-----
MIIDfTCCAy+gAwIBAgIBATAFBgMrZXAwga8xCzAJBgNVBAYTAlVTMREwDwYDVQQI
DAhNYXJ5bGFuZDESMBAGA1UEBwwJQmFsdGltb3JlMSEwHwYDVQQKDBhJbnRlcm5l
dCBXaWRnaXRzIFB0eSBMdGQxIzAhBgNVBAsMGlNlcnZlciBSZXNlYXJjaCBEZXBh
cnRtZW50MRAwDgYDVQQDDAdSb290X0NBMR8wHQYJKoZIhvcNAQkBFhB0ZXN0QGV4
YW1wbGUuY29tMB4XDTIzMDUwNDE3MDYwMFoXDTI0MDUwMzE3MDYwMFowgbcxCzAJ
BgNVBAYTAlVTMREwDwYDVQQIDAhNYXJ5bGFuZDESMBAGA1UEBwwJQmFsdGltb3Jl
MSEwHwYDVQQKDBhJbnRlcm5ldCBXaWRnaXRzIFB0eSBMdGQxIzAhBgNVBAsMGlNl
cnZlciBSZXNlYXJjaCBEZXBhcnRtZW50MRgwFgYDVQQDDA9JbnRlcm1lZGlhdGVf
Q0ExHzAdBgkqhkiG9w0BCQEWEHRlc3RAZXhhbXBsZS5jb20wKjAFBgMrZXADIQCw
safQIOMkFRQnVMyHeAJUfvztQJG0nkyk+BwYjE40uaOCAWQwggFgMA8GA1UdEwEB
/wQFMAMBAf8wHQYDVR0OBBYEFEfTVQGMggHQ3JaN0y2Qn21CoT+AMIHvBgNVHSME
gecwgeSAFGVWcNwftOKGvzQ2L6goqEvAnv9yoYG1pIGyMIGvMQswCQYDVQQGEwJV
UzERMA8GA1UECAwITWFyeWxhbmQxEjAQBgNVBAcMCUJhbHRpbW9yZTEhMB8GA1UE
CgwYSW50ZXJuZXQgV2lkZ2l0cyBQdHkgTHRkMSMwIQYDVQQLDBpTZXJ2ZXIgUmVz
ZWFyY2ggRGVwYXJ0bWVudDEQMA4GA1UEAwwHUm9vdF9DQTEfMB0GCSqGSIb3DQEJ
ARYQdGVzdEBleGFtcGxlLmNvbYIUZzbWhKb6Mc34C6Qv+BpG7HjCle0wDgYDVR0P
AQH/BAQDAgEGMCwGCCsGAQUFBwEBBCAwHjAcBggrBgEFBQcwAYYQaHR0cDovL29j
c3A6ODA4MDAFBgMrZXADQQCip1tZkueOnE964ODCU1pH7HOa3jPVVlZKtaIknrmr
bP6eNFE1P+pKyTMt8wMZD+c2f4zmxPxKrN9kCwirQFAC
-----END CERTIFICATE-----
