Certificate:
    Data:
        Version: 3 (0x2)
        Serial Number: 1 (0x1)
        Signature Algorithm: sha256WithRSAEncryption
        Issuer: C=US, ST=Maryland, L=Baltimore, O=Internet Widgits Pty Ltd, OU=Server Research Department, CN=Root_CA/emailAddress=test@example.com
        Validity
            Not Before: May  7 18:15:55 2023 GMT
            Not After : May  6 18:15:55 2024 GMT
        Subject: C=US, ST=Maryland, L=Baltimore, O=Internet Widgits Pty Ltd, OU=Server Research Department, CN=Intermediate_CA/emailAddress=test@example.com
        Subject Public Key Info:
            Public Key Algorithm: rsaEncryption
                RSA Public-Key: (4096 bit)
                Modulus:
                    00:e2:16:e6:26:36:0f:60:b3:15:45:9f:71:2f:a0:
                    b2:fa:2e:bf:69:23:c6:9c:9d:51:55:80:39:f9:c3:
                    7b:eb:a8:07:8e:d5:bc:c9:de:4d:f5:79:c7:48:de:
                    46:f6:b2:86:67:8b:a1:4f:a2:16:bd:5b:aa:e2:0d:
                    11:f4:61:57:e3:dd:f8:e6:89:b2:31:b8:9f:76:9d:
                    9c:90:3d:78:5f:c8:8f:0b:11:df:05:fc:2a:11:9a:
                    23:08:2e:1c:e2:b0:b4:23:54:0b:dd:5e:d7:e4:d1:
                    e0:a5:f9:06:54:34:5e:9f:3a:0f:08:74:f3:4c:72:
                    46:55:5f:a0:87:2c:d1:0e:bf:4b:b1:88:3a:22:2e:
                    48:c9:d5:dd:39:b1:12:22:ca:f8:47:98:7e:75:70:
                    55:bd:4d:b3:fc:a7:4a:b1:13:6c:2a:21:0e:69:f4:
                    cf:aa:5e:13:86:c7:74:db:89:e5:02:e5:f6:2a:ea:
                    66:79:f1:fb:a9:97:e7:fc:a6:08:96:27:25:c2:9b:
                    53:7f:df:19:66:cf:a7:cd:ec:ce:c5:75:b3:c8:b3:
                    49:67:67:fc:7e:ed:62:5a:36:f8:16:f9:15:0d:ff:
                    66:96:de:78:9d:56:e0:c2:07:56:4c:54:d4:be:15:
                    65:47:f5:cd:39:91:40:b5:53:be:c5:2d:46:21:9e:
                    05:d8:dc:0c:35:e2:e9:5f:c0:f6:4b:42:49:69:e1:
                    3d:88:7b:e5:ae:d9:db:db:12:24:2f:57:da:ce:13:
                    7f:20:ce:9e:7c:65:e8:fc:d9:25:1d:40:ff:04:67:
                    b5:f3:29:c9:04:83:34:60:bf:92:6f:be:e5:ad:27:
                    b9:83:85:ed:38:66:79:75:17:99:ec:40:15:72:9f:
                    23:12:eb:62:33:d1:5e:b3:00:28:00:53:96:de:70:
                    e2:a7:71:c1:a4:d9:04:b8:2b:66:c1:cc:e3:ea:cd:
                    25:48:be:cd:bb:29:b6:e1:90:3a:0c:90:e2:71:90:
                    57:81:d5:19:05:db:23:6d:a2:52:5d:6a:34:2d:52:
                    6a:64:b3:7b:38:f1:d2:75:a8:5b:95:fd:60:cf:9d:
                    c7:e4:36:94:29:50:7f:15:40:de:c1:a0:7b:53:0e:
                    2f:8b:43:ad:c1:b4:90:86:33:56:3e:98:3d:2c:c0:
                    75:82:55:60:ee:38:4c:18:c7:a7:a5:50:7f:22:40:
                    23:f5:12:2e:5e:5e:83:c9:47:58:d2:4b:8e:cd:dc:
                    27:b8:0f:1e:bd:de:5d:0c:3a:b8:3a:ab:c6:aa:bf:
                    25:ce:ad:0d:3a:dc:f0:1d:8b:3e:77:ee:86:98:5b:
                    be:e9:34:fb:f6:bb:83:88:28:82:85:84:19:53:69:
                    94:cf:bf
                Exponent: 65537 (0x10001)
        X509v3 extensions:
            X509v3 Basic Constraints: critical
                CA:TRUE
            X509v3 Subject Key Identifier: 
                EB:30:66:EC:DD:5A:41:75:49:D7:78:55:85:58:61:51:C0:CB:A8:56
            X509v3 Authority Key Identifier: 
                keyid:7B:EC:F4:D1:EE:3D:67:40:CC:29:E9:44:EA:49:49:89:CF:F7:0D:70
                DirName:/C=US/ST=Maryland/L=Baltimore/O=Internet Widgits Pty Ltd/OU=Server Research Department/CN=Root_CA/emailAddress=test@example.com
                serial:0F:5D:BE:61:E5:74:B7:51:8D:78:52:B1:C0:96:70:48:6B:4F:80:35

            X509v3 Key Usage: critical
                Certificate Sign, CRL Sign
    Signature Algorithm: sha256WithRSAEncryption
         12:76:b3:03:91:e7:3a:d3:84:f2:05:a2:46:51:ed:dd:ff:34:
         4c:bb:d2:ec:96:28:40:96:4d:50:ad:c7:0e:3d:0a:b0:8d:60:
         8b:1b:6b:48:75:5b:5e:8c:11:d3:1e:aa:16:ea:82:31:40:75:
         7a:2e:d2:3f:57:cb:b4:60:e7:48:01:7e:6c:1c:19:11:f8:fe:
         cf:31:92:ce:f5:cc:11:a6:de:e5:c1:c9:93:17:c8:00:1f:d3:
         0d:56:18:cd:12:77:66:5c:7b:d5:d1:b8:84:a2:7a:3d:cb:b2:
         9f:58:83:13:ac:b2:e9:e0:61:06:8d:75:27:d2:99:cf:44:a0:
         95:3f:46:f2:f1:cd:74:3e:8d:f9:88:07:2a:43:b6:8a:81:49:
         33:14:ae:a8:17:43:94:30:f2:61:cb:21:ca:a7:7a:e2:9f:a3:
         a7:3f:eb:50:74:7c:5d:66:8c:aa:8b:08:65:ee:ff:c4:73:50:
         b2:a9:59:47:9c:18:e2:4a:8d:45:09:98:0e:12:85:0f:4f:4c:
         98:f1:2e:f9:46:8f:c9:fc:c0:32:3e:11:62:c0:e7:3d:28:52:
         04:ac:7a:25:ce:23:45:0b:ea:d7:2e:3b:58:bd:fc:0a:d6:d7:
         e6:6a:27:95:72:d3:a6:a3:47:84:22:7e:09:76:1f:55:e5:c1:
         fb:59:08:ab:9c:4a:d1:22:7b:30:d6:30:2a:33:8f:d8:d2:29:
         da:51:ea:64:50:01:03:c3:c6:91:01:81:01:28:af:bd:35:ba:
         7d:34:e7:29:2d:55:fb:c1:d2:30:84:18:ee:17:ec:91:81:af:
         3d:f6:d7:ed:7a:33:eb:4b:40:db:cc:6e:de:d8:46:6b:3c:a1:
         54:b8:56:4e:58:2c:8d:c2:63:94:1e:34:99:ea:3e:27:04:76:
         ad:00:53:2a:b6:3a:55:b0:28:ba:b4:2b:21:02:93:9a:63:f1:
         4a:66:c6:61:fc:b6:5c:e0:f3:34:17:e3:07:63:69:e2:af:28:
         c4:a6:a5:d8:13:7a:3d:09:4a:a3:c4:d9:05:e2:f9:ec:90:6f:
         4b:fe:0b:2e:62:70:f0:7f:15:a5:f0:8b:bf:b3:4d:07:f7:6f:
         4a:58:29:bd:31:93:44:ae:8c:6a:cd:8d:5b:77:e7:21:0b:17:
         f6:1a:d5:fc:d6:ad:35:9a:6e:7a:d3:87:e2:68:e0:64:f6:d4:
         d2:26:a1:f0:8a:5e:9e:c5:f4:f5:9d:1c:e9:fd:97:e8:99:75:
         39:27:2f:8e:ae:ae:d6:19:9b:60:e0:78:66:9d:31:6e:f7:17:
         c1:69:18:c8:c5:b3:05:56:e4:90:d8:1a:ae:d2:3f:4c:5d:b4:
         2c:13:4d:df:c6:c2:be:9e
-----BEGIN CERTIFICATE-----
MIIHGzCCBQOgAwIBAgIBATANBgkqhkiG9w0BAQsFADCBrzELMAkGA1UEBhMCVVMx
ETAPBgNVBAgMCE1hcnlsYW5kMRIwEAYDVQQHDAlCYWx0aW1vcmUxITAfBgNVBAoM
GEludGVybmV0IFdpZGdpdHMgUHR5IEx0ZDEjMCEGA1UECwwaU2VydmVyIFJlc2Vh
cmNoIERlcGFydG1lbnQxEDAOBgNVBAMMB1Jvb3RfQ0ExHzAdBgkqhkiG9w0BCQEW
EHRlc3RAZXhhbXBsZS5jb20wHhcNMjMwNTA3MTgxNTU1WhcNMjQwNTA2MTgxNTU1
WjCBtzELMAkGA1UEBhMCVVMxETAPBgNVBAgMCE1hcnlsYW5kMRIwEAYDVQQHDAlC
YWx0aW1vcmUxITAfBgNVBAoMGEludGVybmV0IFdpZGdpdHMgUHR5IEx0ZDEjMCEG
A1UECwwaU2VydmVyIFJlc2VhcmNoIERlcGFydG1lbnQxGDAWBgNVBAMMD0ludGVy
bWVkaWF0ZV9DQTEfMB0GCSqGSIb3DQEJARYQdGVzdEBleGFtcGxlLmNvbTCCAiIw
DQYJKoZIhvcNAQEBBQADggIPADCCAgoCggIBAOIW5iY2D2CzFUWfcS+gsvouv2kj
xpydUVWAOfnDe+uoB47VvMneTfV5x0jeRvayhmeLoU+iFr1bquINEfRhV+Pd+OaJ
sjG4n3adnJA9eF/IjwsR3wX8KhGaIwguHOKwtCNUC91e1+TR4KX5BlQ0Xp86Dwh0
80xyRlVfoIcs0Q6/S7GIOiIuSMnV3TmxEiLK+EeYfnVwVb1Ns/ynSrETbCohDmn0
z6peE4bHdNuJ5QLl9irqZnnx+6mX5/ymCJYnJcKbU3/fGWbPp83szsV1s8izSWdn
/H7tYlo2+Bb5FQ3/ZpbeeJ1W4MIHVkxU1L4VZUf1zTmRQLVTvsUtRiGeBdjcDDXi
6V/A9ktCSWnhPYh75a7Z29sSJC9X2s4TfyDOnnxl6PzZJR1A/wRntfMpyQSDNGC/
km++5a0nuYOF7ThmeXUXmexAFXKfIxLrYjPRXrMAKABTlt5w4qdxwaTZBLgrZsHM
4+rNJUi+zbsptuGQOgyQ4nGQV4HVGQXbI22iUl1qNC1SamSzezjx0nWoW5X9YM+d
x+Q2lClQfxVA3sGge1MOL4tDrcG0kIYzVj6YPSzAdYJVYO44TBjHp6VQfyJAI/US
Ll5eg8lHWNJLjs3cJ7gPHr3eXQw6uDqrxqq/Jc6tDTrc8B2LPnfuhphbvuk0+/a7
g4gogoWEGVNplM+/AgMBAAGjggE2MIIBMjAPBgNVHRMBAf8EBTADAQH/MB0GA1Ud
DgQWBBTrMGbs3VpBdUnXeFWFWGFRwMuoVjCB7wYDVR0jBIHnMIHkgBR77PTR7j1n
QMwp6UTqSUmJz/cNcKGBtaSBsjCBrzELMAkGA1UEBhMCVVMxETAPBgNVBAgMCE1h
cnlsYW5kMRIwEAYDVQQHDAlCYWx0aW1vcmUxITAfBgNVBAoMGEludGVybmV0IFdp
ZGdpdHMgUHR5IEx0ZDEjMCEGA1UECwwaU2VydmVyIFJlc2VhcmNoIERlcGFydG1l
bnQxEDAOBgNVBAMMB1Jvb3RfQ0ExHzAdBgkqhkiG9w0BCQEWEHRlc3RAZXhhbXBs
ZS5jb22CFA9dvmHldLdRjXhSscCWcEhrT4A1MA4GA1UdDwEB/wQEAwIBBjANBgkq
hkiG9w0BAQsFAAOCAgEAEnazA5HnOtOE8gWiRlHt3f80TLvS7JYoQJZNUK3HDj0K
sI1gixtrSHVbXowR0x6qFuqCMUB1ei7SP1fLtGDnSAF+bBwZEfj+zzGSzvXMEabe
5cHJkxfIAB/TDVYYzRJ3Zlx71dG4hKJ6Pcuyn1iDE6yy6eBhBo11J9KZz0SglT9G
8vHNdD6N+YgHKkO2ioFJMxSuqBdDlDDyYcshyqd64p+jpz/rUHR8XWaMqosIZe7/
xHNQsqlZR5wY4kqNRQmYDhKFD09MmPEu+UaPyfzAMj4RYsDnPShSBKx6Jc4jRQvq
1y47WL38CtbX5monlXLTpqNHhCJ+CXYfVeXB+1kIq5xK0SJ7MNYwKjOP2NIp2lHq
ZFABA8PGkQGBASivvTW6fTTnKS1V+8HSMIQY7hfskYGvPfbX7Xoz60tA28xu3thG
azyhVLhWTlgsjcJjlB40meo+JwR2rQBTKrY6VbAourQrIQKTmmPxSmbGYfy2XODz
NBfjB2Np4q8oxKal2BN6PQlKo8TZBeL57JBvS/4LLmJw8H8VpfCLv7NNB/dvSlgp
vTGTRK6Mas2NW3fnIQsX9hrV/NatNZpuetOH4mjgZPbU0iah8IpensX09Z0c6f2X
6Jl1OScvjq6u1hmbYOB4Zp0xbvcXwWkYyMWzBVbkkNgartI/TF20LBNN38bCvp4=
-----END CERTIFICATE-----
