Certificate:
    Data:
        Version: 3 (0x2)
        Serial Number: 3 (0x3)
        Signature Algorithm: falcon512
        Issuer: C=US, ST=Maryland, L=Baltimore, O=Internet Widgits Pty Ltd, OU=Server Research Department, CN=Intermediate_CA/emailAddress=test@example.com
        Validity
            Not Before: May  7 18:15:56 2023 GMT
            Not After : May  6 18:15:56 2024 GMT
        Subject: C=US, ST=Maryland, L=Baltimore, O=Internet Widgits Pty Ltd, OU=Server Research Department, CN=User/emailAddress=test@example.com
        Subject Public Key Info:
            Public Key Algorithm: falcon512
                falcon512 Public-Key:
                pub:
                    09:39:f9:8a:81:11:93:b5:85:11:a6:71:f0:11:f5:
                    2e:dc:54:2a:f9:c1:38:b2:b8:80:c1:f5:6e:b3:b9:
                    c6:b7:a2:e8:8c:55:6c:b8:06:d2:5c:1d:e1:0a:b6:
                    62:f1:4e:e3:89:09:85:a5:a3:ff:82:ec:87:12:eb:
                    82:9f:da:82:1a:76:47:77:e5:42:4a:65:bd:63:b5:
                    1d:5f:8b:89:1d:60:25:a5:8a:89:00:21:9e:97:d0:
                    40:19:5b:4c:67:f4:5a:23:19:11:76:22:38:ff:0a:
                    b7:4b:a5:d5:c2:ff:27:d1:bc:fe:25:c7:d1:41:12:
                    10:9c:a0:69:45:54:89:3c:a5:1a:16:f4:4d:99:71:
                    86:00:34:90:d0:d3:2b:4d:e0:34:2f:a9:72:80:d9:
                    85:47:ad:2d:b1:83:8d:e7:a5:cc:cd:2e:83:6a:36:
                    15:fe:4a:5a:1a:20:cd:46:cd:23:96:b8:a6:b0:6b:
                    d2:e5:88:6f:e0:86:c1:94:00:2c:1d:75:30:f3:8c:
                    ca:bb:7d:02:55:a8:e0:af:92:22:e6:38:97:8f:af:
                    ea:56:d9:11:c0:20:9d:d8:13:28:74:87:de:29:5e:
                    a4:ae:0b:74:a7:6a:ae:03:ed:b2:48:6b:54:71:39:
                    7e:71:67:c7:e2:81:86:5d:f5:e7:e6:9a:e1:3a:bc:
                    9c:08:7b:95:dc:5e:a9:c3:e4:6a:ee:6e:96:0d:9f:
                    20:69:55:f7:42:36:4f:a9:ec:68:1c:6c:38:4d:da:
                    b6:a0:04:55:fe:a6:81:9e:d1:73:7b:69:05:78:14:
                    64:c1:04:c6:6b:83:75:a7:dc:07:49:3b:a6:b4:99:
                    5a:ab:89:98:37:ba:2b:8f:61:b9:c1:f9:71:9a:ae:
                    41:76:8e:f4:a5:29:7e:aa:7d:2a:79:a9:27:aa:07:
                    b6:5c:59:9b:c5:e1:6e:24:f3:41:8e:62:1f:9b:75:
                    cb:44:f7:12:f5:97:78:a3:e2:65:50:de:9e:90:b6:
                    f2:fd:a4:97:3e:0c:bf:b4:92:9b:80:37:28:63:2a:
                    7f:88:be:52:41:2d:0a:c8:af:62:b3:5d:14:50:a1:
                    d4:74:07:2a:65:94:60:a7:43:99:9c:b8:31:f1:8f:
                    2b:99:49:e7:50:2f:c1:a8:6c:e5:e5:46:0e:a8:84:
                    21:41:fc:a5:ef:e5:77:8a:b4:40:ab:c3:6e:22:0b:
                    74:13:03:b7:e3:e4:12:16:1a:f6:b7:14:fe:29:dd:
                    a5:c7:ae:1a:2b:3c:1e:0d:6b:a6:cc:6a:b4:cd:82:
                    c3:7e:1f:5b:0e:98:32:24:0d:4f:c2:7c:02:27:23:
                    18:8c:c6:5d:b4:9a:72:3d:ad:33:7e:89:cb:97:4b:
                    89:9b:0b:78:c2:ca:c1:d3:9e:26:ea:82:86:87:6f:
                    7e:79:1e:7d:54:91:66:ec:21:86:f6:a2:dd:8f:fd:
                    53:89:4f:f8:56:d4:87:69:d6:33:00:85:29:87:2e:
                    b5:ce:72:12:4a:14:82:49:1c:94:72:4a:e0:27:fc:
                    aa:2b:a5:19:62:48:84:03:13:5f:61:2a:42:66:85:
                    67:22:c5:b6:55:79:56:0a:00:0b:44:5a:85:39:14:
                    d5:d0:64:b3:4d:69:c8:bd:42:57:41:35:91:f2:74:
                    89:5d:27:50:23:89:92:e4:45:15:b8:9f:d5:f4:14:
                    57:8a:69:cd:71:cc:8c:a1:a4:7a:2f:17:04:69:34:
                    75:cc:96:38:be:0a:07:8e:59:36:d1:d2:6e:2e:8c:
                    56:58:d4:6e:d7:05:20:c1:7d:7b:e9:13:57:8c:ae:
                    c6:a1:19:d5:6b:3b:46:6f:a6:c5:44:b5:bc:c2:4b:
                    51:22:c1:28:8a:96:42:4b:0a:40:d7:72:cd:91:89:
                    a9:6f:33:63:6c:b5:29:d0:ad:cc:37:a6:ee:f1:f1:
                    9d:82:7b:52:1a:04:d8:ce:bc:1b:d4:97:6a:4b:83:
                    41:3d:78:a4:82:15:8f:c3:65:9c:79:e0:b5:1c:6f:
                    1b:70:81:53:bf:19:84:ad:12:ea:c3:4c:60:27:1a:
                    9a:5c:60:7f:9c:96:92:10:d3:43:e3:6d:7f:87:11:
                    fa:20:29:ae:dc:83:06:e7:9b:01:8f:46:3c:1c:15:
                    c2:15:e6:f9:4c:32:17:78:fc:eb:3c:4a:4c:c3:a2:
                    62:41:a1:89:be:8a:8b:c3:5a:6c:10:2a:17:da:aa:
                    17:40:36:b9:56:b5:41:c6:52:95:d6:8b:86:3c:5a:
                    5c:8c:92:3b:bb:4c:c2:2c:74:5c:16:17:c2:89:e3:
                    2e:8d:27:19:7e:cd:80:12:89:84:83:87:4d:5a:0f:
                    16:5c:2c:00:2b:3a:2b:25:8d:d9:89:9d:80:26:19:
                    4d:d8:78:da:c9:24:1a:0c:e8:64:94:00
        X509v3 extensions:
            X509v3 Basic Constraints: critical
                CA:FALSE
            X509v3 Subject Key Identifier: 
                28:BD:F6:5B:57:87:E9:A8:23:91:A0:AA:47:70:65:B0:26:D8:7C:6B
            X509v3 Authority Key Identifier: 
                keyid:58:3A:1E:45:B5:20:9B:5A:59:55:59:5A:BF:0E:EB:D5:AF:D7:74:10
                DirName:/C=US/ST=Maryland/L=Baltimore/O=Internet Widgits Pty Ltd/OU=Server Research Department/CN=Root_CA/emailAddress=test@example.com
                serial:01

            X509v3 Key Usage: 
                Digital Signature, Non Repudiation, Key Encipherment
            X509v3 Extended Key Usage: 
                TLS Web Client Authentication
    Signature Algorithm: falcon512
         39:cd:42:39:c2:1d:aa:ab:00:09:80:0c:c6:37:24:da:65:02:
         6c:61:e9:ce:dd:20:d2:56:e4:ed:c4:f3:2a:7a:d8:44:7f:de:
         bd:4a:e7:b1:5b:17:88:40:20:08:01:d7:6a:18:7f:de:b3:30:
         df:d6:39:6d:ff:ae:f8:fa:2f:b9:64:7d:be:48:c4:21:46:95:
         3c:53:0b:d7:ec:c8:08:a9:81:c5:38:09:c2:35:4e:d2:72:2a:
         6b:5a:41:12:dd:b2:3d:99:44:0e:b8:5b:dc:b1:d8:92:68:68:
         93:d8:ef:82:77:cd:f1:5e:f8:d7:18:35:84:81:08:41:d7:3a:
         bf:a9:0a:1f:26:62:23:78:dc:7f:db:f7:8d:97:48:e4:cd:6b:
         53:56:9d:45:cb:f4:08:83:29:59:9d:6a:3a:8f:a8:c1:f1:20:
         c4:8b:eb:8b:56:9a:38:9d:3e:0c:89:6c:fc:e9:85:a3:2c:51:
         d0:54:ce:59:ae:e8:8c:ee:1b:5e:aa:a9:94:8c:16:04:9d:4a:
         da:3b:4d:fe:19:fb:25:2e:6a:d2:de:27:f8:e1:aa:ec:9a:e4:
         bd:06:2b:29:c2:12:82:21:fc:92:3a:4e:97:ce:8a:0e:b1:d3:
         f0:79:c4:63:aa:db:fa:4b:d1:a3:16:4e:5f:23:ea:56:f1:2d:
         95:cd:cb:e1:e0:1b:18:76:bf:fe:d6:6e:7e:78:29:2a:41:81:
         f7:4b:ec:b9:81:84:66:a9:cd:a1:2c:49:f6:f2:2d:3c:6b:59:
         92:a7:1c:af:41:cd:3c:0b:2e:ef:a5:a9:42:6e:1f:4f:69:3d:
         45:57:8d:26:72:a0:db:a0:29:1d:ce:61:3c:ec:4c:8c:ae:d1:
         91:fd:c4:19:ba:d6:08:72:36:a8:e9:ae:85:22:71:77:e3:44:
         f4:59:b1:ec:09:9f:69:5a:e4:35:c0:9f:3b:9c:59:cb:1f:39:
         42:5a:1b:46:33:5d:ab:6d:e0:ab:fe:69:86:85:ba:19:86:34:
         a7:64:55:6f:ee:a6:04:54:a3:fb:18:2b:3d:c4:6a:24:5a:dd:
         fc:db:6f:09:18:e6:a3:77:34:a0:e4:e8:89:bb:92:e8:ab:2b:
         be:85:06:63:38:84:0e:8d:90:66:2d:af:52:5d:5f:34:39:b4:
         a6:96:cd:53:1e:89:11:1e:c1:ad:3f:07:52:49:5c:c2:f6:57:
         3a:12:61:aa:d9:ec:60:49:9c:95:74:9b:bd:ba:0c:83:1e:df:
         3d:f7:ec:51:ac:c9:1f:43:2f:ab:f3:98:5a:8c:27:46:94:de:
         31:78:3c:9a:cd:f4:91:c4:56:7b:df:5b:eb:52:93:b0:a9:e9:
         0f:8a:cd:e0:94:fa:69:60:c4:b0:e6:f5:cd:c6:6d:b8:da:c3:
         6e:ce:70:ac:bf:94:e5:a2:de:3d:30:32:fc:4b:6b:96:b6:9d:
         86:d2:10:7d:13:31:d4:74:15:3d:ac:8c:98:ba:08:6a:60:99:
         cd:35:96:95:82:b6:87:3e:6d:4a:8d:4b:64:ca:1c:99:98:b4:
         b1:d7:28:72:21:4b:b3:74:95:43:a7:06:20:1d:38:fe:5c:a0:
         71:e4:c6:ea:ce:cf:3b:d8:4b:92:95:12:eb:6c:b3:f9:f6:9c:
         91:56:9b:35:12:07:ca:84:39:f4:32:6c:fd:b3:e4:67:2d:b4:
         c7:62:11:56:61:e7:9d:ca:77:ec:c2:3e:c3:ac:5b:27:9b:28:
         d5:ed:94:75:4f:1f:13:40
-----BEGIN CERTIFICATE-----
MIIJBTCCBmOgAwIBAgIBAzAHBgUrzg8DBjCBtzELMAkGA1UEBhMCVVMxETAPBgNV
BAgMCE1hcnlsYW5kMRIwEAYDVQQHDAlCYWx0aW1vcmUxITAfBgNVBAoMGEludGVy
bmV0IFdpZGdpdHMgUHR5IEx0ZDEjMCEGA1UECwwaU2VydmVyIFJlc2VhcmNoIERl
cGFydG1lbnQxGDAWBgNVBAMMD0ludGVybWVkaWF0ZV9DQTEfMB0GCSqGSIb3DQEJ
ARYQdGVzdEBleGFtcGxlLmNvbTAeFw0yMzA1MDcxODE1NTZaFw0yNDA1MDYxODE1
NTZaMIGsMQswCQYDVQQGEwJVUzERMA8GA1UECAwITWFyeWxhbmQxEjAQBgNVBAcM
CUJhbHRpbW9yZTEhMB8GA1UECgwYSW50ZXJuZXQgV2lkZ2l0cyBQdHkgTHRkMSMw
IQYDVQQLDBpTZXJ2ZXIgUmVzZWFyY2ggRGVwYXJ0bWVudDENMAsGA1UEAwwEVXNl
cjEfMB0GCSqGSIb3DQEJARYQdGVzdEBleGFtcGxlLmNvbTCCA48wBwYFK84PAwYD
ggOCAAk5+YqBEZO1hRGmcfAR9S7cVCr5wTiyuIDB9W6zuca3ouiMVWy4BtJcHeEK
tmLxTuOJCYWlo/+C7IcS64Kf2oIadkd35UJKZb1jtR1fi4kdYCWliokAIZ6X0EAZ
W0xn9FojGRF2Ijj/CrdLpdXC/yfRvP4lx9FBEhCcoGlFVIk8pRoW9E2ZcYYANJDQ
0ytN4DQvqXKA2YVHrS2xg43npczNLoNqNhX+SloaIM1GzSOWuKawa9LliG/ghsGU
ACwddTDzjMq7fQJVqOCvkiLmOJePr+pW2RHAIJ3YEyh0h94pXqSuC3Snaq4D7bJI
a1RxOX5xZ8figYZd9efmmuE6vJwIe5XcXqnD5GrubpYNnyBpVfdCNk+p7GgcbDhN
2ragBFX+poGe0XN7aQV4FGTBBMZrg3Wn3AdJO6a0mVqriZg3uiuPYbnB+XGarkF2
jvSlKX6qfSp5qSeqB7ZcWZvF4W4k80GOYh+bdctE9xL1l3ij4mVQ3p6QtvL9pJc+
DL+0kpuANyhjKn+IvlJBLQrIr2KzXRRQodR0BypllGCnQ5mcuDHxjyuZSedQL8Go
bOXlRg6ohCFB/KXv5XeKtECrw24iC3QTA7fj5BIWGva3FP4p3aXHrhorPB4Na6bM
arTNgsN+H1sOmDIkDU/CfAInIxiMxl20mnI9rTN+icuXS4mbC3jCysHTnibqgoaH
b355Hn1UkWbsIYb2ot2P/VOJT/hW1Idp1jMAhSmHLrXOchJKFIJJHJRySuAn/Kor
pRliSIQDE19hKkJmhWcixbZVeVYKAAtEWoU5FNXQZLNNaci9QldBNZHydIldJ1Aj
iZLkRRW4n9X0FFeKac1xzIyhpHovFwRpNHXMlji+CgeOWTbR0m4ujFZY1G7XBSDB
fXvpE1eMrsahGdVrO0ZvpsVEtbzCS1EiwSiKlkJLCkDXcs2RialvM2NstSnQrcw3
pu7x8Z2Ce1IaBNjOvBvUl2pLg0E9eKSCFY/DZZx54LUcbxtwgVO/GYStEurDTGAn
GppcYH+clpIQ00PjbX+HEfogKa7cgwbnmwGPRjwcFcIV5vlMMhd4/Os8SkzDomJB
oYm+iovDWmwQKhfaqhdANrlWtUHGUpXWi4Y8WlyMkju7TMIsdFwWF8KJ4y6NJxl+
zYASiYSDh01aDxZcLAArOisljdmJnYAmGU3YeNrJJBoM6GSUAKOCATIwggEuMAwG
A1UdEwEB/wQCMAAwHQYDVR0OBBYEFCi99ltXh+moI5GgqkdwZbAm2HxrMIHcBgNV
HSMEgdQwgdGAFFg6HkW1IJtaWVVZWr8O69Wv13QQoYG1pIGyMIGvMQswCQYDVQQG
EwJVUzERMA8GA1UECAwITWFyeWxhbmQxEjAQBgNVBAcMCUJhbHRpbW9yZTEhMB8G
A1UECgwYSW50ZXJuZXQgV2lkZ2l0cyBQdHkgTHRkMSMwIQYDVQQLDBpTZXJ2ZXIg
UmVzZWFyY2ggRGVwYXJ0bWVudDEQMA4GA1UEAwwHUm9vdF9DQTEfMB0GCSqGSIb3
DQEJARYQdGVzdEBleGFtcGxlLmNvbYIBATALBgNVHQ8EBAMCBeAwEwYDVR0lBAww
CgYIKwYBBQUHAwIwBwYFK84PAwYDggKRADnNQjnCHaqrAAmADMY3JNplAmxh6c7d
INJW5O3E8yp62ER/3r1K57FbF4hAIAgB12oYf96zMN/WOW3/rvj6L7lkfb5IxCFG
lTxTC9fsyAipgcU4CcI1TtJyKmtaQRLdsj2ZRA64W9yx2JJoaJPY74J3zfFe+NcY
NYSBCEHXOr+pCh8mYiN43H/b942XSOTNa1NWnUXL9AiDKVmdajqPqMHxIMSL64tW
mjidPgyJbPzphaMsUdBUzlmu6IzuG16qqZSMFgSdSto7Tf4Z+yUuatLeJ/jhquya
5L0GKynCEoIh/JI6TpfOig6x0/B5xGOq2/pL0aMWTl8j6lbxLZXNy+HgGxh2v/7W
bn54KSpBgfdL7LmBhGapzaEsSfbyLTxrWZKnHK9BzTwLLu+lqUJuH09pPUVXjSZy
oNugKR3OYTzsTIyu0ZH9xBm61ghyNqjproUicXfjRPRZsewJn2la5DXAnzucWcsf
OUJaG0YzXatt4Kv+aYaFuhmGNKdkVW/upgRUo/sYKz3EaiRa3fzbbwkY5qN3NKDk
6Im7kuirK76FBmM4hA6NkGYtr1JdXzQ5tKaWzVMeiREewa0/B1JJXML2VzoSYarZ
7GBJnJV0m726DIMe3z337FGsyR9DL6vzmFqMJ0aU3jF4PJrN9JHEVnvfW+tSk7Cp
6Q+KzeCU+mlgxLDm9c3Gbbjaw27OcKy/lOWi3j0wMvxLa5a2nYbSEH0TMdR0FT2s
jJi6CGpgmc01lpWCtoc+bUqNS2TKHJmYtLHXKHIhS7N0lUOnBiAdOP5coHHkxurO
zzvYS5KVEutss/n2nJFWmzUSB8qEOfQybP2z5GcttMdiEVZh553Kd+zCPsOsWyeb
KNXtlHVPHxNA
-----END CERTIFICATE-----
