Certificate:
    Data:
        Version: 3 (0x2)
        Serial Number: 1 (0x1)
        Signature Algorithm: ecdsa-with-SHA256
        Issuer: C=US, ST=Maryland, L=Baltimore, O=Internet Widgits Pty Ltd, OU=Server Research Department, CN=Intermediate_CA/emailAddress=test@example.com
        Validity
            Not Before: May  7 18:15:56 2023 GMT
            Not After : May  6 18:15:56 2024 GMT
        Subject: C=US, ST=Maryland, L=Baltimore, O=Internet Widgits Pty Ltd, OU=Server Research Department, CN=OCSP/emailAddress=test@example.com
        Subject Public Key Info:
            Public Key Algorithm: id-ecPublicKey
                Public-Key: (256 bit)
                pub:
                    04:3a:e6:6f:cb:8e:9a:87:26:85:9c:9e:3d:27:0d:
                    82:67:cb:58:a0:16:59:02:0e:b5:ca:bd:d5:e9:0b:
                    be:42:47:78:86:5b:5f:a4:a4:f8:86:00:a6:45:ff:
                    2e:24:25:20:79:ce:af:4d:9f:a9:3e:b3:5b:06:b9:
                    2d:bc:36:89:72
                ASN1 OID: prime256v1
                NIST CURVE: P-256
        X509v3 extensions:
            X509v3 Basic Constraints: 
                CA:FALSE
            X509v3 Key Usage: 
                Digital Signature, Non Repudiation, Key Encipherment
            X509v3 Extended Key Usage: 
                OCSP Signing
    Signature Algorithm: ecdsa-with-SHA256
         30:45:02:20:02:38:bd:00:c6:5f:75:e6:36:11:c5:f8:3e:4c:
         c1:60:c7:e9:3b:d4:77:39:b0:cf:a7:1d:4f:f9:91:ac:a3:2f:
         02:21:00:cd:cc:3f:2b:68:8b:1d:c9:d7:43:c6:81:12:4e:2e:
         b5:3b:4f:19:89:65:06:21:ab:25:ad:a3:0f:64:27:5a:fe
-----BEGIN CERTIFICATE-----
MIICgzCCAimgAwIBAgIBATAKBggqhkjOPQQDAjCBtzELMAkGA1UEBhMCVVMxETAP
BgNVBAgMCE1hcnlsYW5kMRIwEAYDVQQHDAlCYWx0aW1vcmUxITAfBgNVBAoMGElu
dGVybmV0IFdpZGdpdHMgUHR5IEx0ZDEjMCEGA1UECwwaU2VydmVyIFJlc2VhcmNo
IERlcGFydG1lbnQxGDAWBgNVBAMMD0ludGVybWVkaWF0ZV9DQTEfMB0GCSqGSIb3
DQEJARYQdGVzdEBleGFtcGxlLmNvbTAeFw0yMzA1MDcxODE1NTZaFw0yNDA1MDYx
ODE1NTZaMIGsMQswCQYDVQQGEwJVUzERMA8GA1UECAwITWFyeWxhbmQxEjAQBgNV
BAcMCUJhbHRpbW9yZTEhMB8GA1UECgwYSW50ZXJuZXQgV2lkZ2l0cyBQdHkgTHRk
MSMwIQYDVQQLDBpTZXJ2ZXIgUmVzZWFyY2ggRGVwYXJ0bWVudDENMAsGA1UEAwwE
T0NTUDEfMB0GCSqGSIb3DQEJARYQdGVzdEBleGFtcGxlLmNvbTBZMBMGByqGSM49
AgEGCCqGSM49AwEHA0IABDrmb8uOmocmhZyePScNgmfLWKAWWQIOtcq91ekLvkJH
eIZbX6Sk+IYApkX/LiQlIHnOr02fqT6zWwa5Lbw2iXKjLzAtMAkGA1UdEwQCMAAw
CwYDVR0PBAQDAgXgMBMGA1UdJQQMMAoGCCsGAQUFBwMJMAoGCCqGSM49BAMCA0gA
MEUCIAI4vQDGX3XmNhHF+D5MwWDH6TvUdzmwz6cdT/mRrKMvAiEAzcw/K2iLHcnX
Q8aBEk4utTtPGYllBiGrJa2jD2QnWv4=
-----END CERTIFICATE-----
