Certificate:
    Data:
        Version: 3 (0x2)
        Serial Number: 1 (0x1)
        Signature Algorithm: falcon512
        Issuer: C=US, ST=Maryland, L=Baltimore, O=Internet Widgits Pty Ltd, OU=Server Research Department, CN=Intermediate_CA/emailAddress=test@example.com
        Validity
            Not Before: May  4 17:06:00 2023 GMT
            Not After : May  3 17:06:00 2024 GMT
        Subject: C=US, ST=Maryland, L=Baltimore, O=Internet Widgits Pty Ltd, OU=Server Research Department, CN=OCSP/emailAddress=test@example.com
        Subject Public Key Info:
            Public Key Algorithm: falcon512
                falcon512 Public-Key:
                pub:
                    09:45:f0:58:60:54:54:76:6e:74:0d:15:92:8d:70:
                    98:a9:5e:45:76:98:e5:9d:16:59:78:20:99:1f:54:
                    2c:d2:1b:fc:12:74:8e:e6:d9:f4:5e:98:2a:45:ed:
                    39:d2:ed:53:0e:3f:06:95:76:10:cc:16:bc:06:8f:
                    99:1a:94:0d:be:62:5b:04:e8:17:cb:7c:3c:f9:04:
                    a9:20:1a:9b:96:a9:62:be:07:f6:53:ba:17:f3:07:
                    cb:95:ad:dc:00:05:21:51:69:8d:85:29:05:c2:65:
                    6e:95:14:96:0a:f7:43:69:57:c8:3e:89:0d:d6:57:
                    73:9a:98:27:eb:2f:af:6a:95:8d:d4:b2:09:a4:af:
                    4d:7b:32:1c:95:49:28:a5:d7:cb:e4:4e:19:42:8a:
                    67:41:ee:58:40:4d:9e:0d:45:79:83:39:30:e1:3c:
                    c1:16:ea:10:45:7d:62:c5:0c:9b:b0:5b:d1:bd:88:
                    c8:5b:48:17:dc:f3:a3:cb:ed:39:b8:de:4c:c9:ca:
                    20:ec:15:5d:4a:48:52:6b:dc:45:49:1b:80:81:aa:
                    23:b1:7c:17:40:fe:17:8a:2e:05:d5:b0:0e:02:19:
                    bb:e2:b0:ba:fc:d7:dd:ab:d1:b2:21:2b:16:89:84:
                    c1:d0:10:39:a1:cf:73:ae:17:15:08:01:c4:3b:16:
                    60:f9:2a:60:57:86:a9:78:70:78:1e:04:8c:b4:52:
                    b5:a7:d3:e2:93:58:f6:05:cd:28:c1:05:d1:0a:28:
                    eb:98:49:53:72:47:92:d1:94:63:39:62:56:e9:84:
                    4f:4e:84:46:99:c6:62:22:aa:a4:01:96:59:2a:a2:
                    32:0b:e4:62:46:95:dd:a2:8e:5d:ea:0b:9c:ae:cc:
                    49:51:d4:90:d7:94:31:1f:68:07:75:4b:a3:67:2a:
                    84:89:b2:61:4b:b2:07:f6:7a:18:2e:d9:30:0e:f5:
                    b1:9a:cc:a6:3a:1e:3c:f0:78:e7:59:2d:35:48:61:
                    d5:18:c2:d5:28:64:7c:75:0d:61:30:a0:dd:e8:35:
                    99:e0:63:40:7d:c0:74:83:5f:4f:93:71:1b:c3:ed:
                    9f:cb:bd:fd:d2:89:d0:65:54:90:fa:c3:85:fc:44:
                    bd:6c:de:32:20:26:07:4e:3d:8c:98:92:42:93:9f:
                    1f:fc:e5:2a:9f:8e:27:7b:ec:48:b7:b9:0a:85:52:
                    82:24:ab:3d:9c:84:6b:ca:fc:b7:70:cd:77:82:28:
                    95:9b:a6:95:7c:bf:9d:22:33:73:ae:68:2e:8d:69:
                    0b:6a:9d:89:27:86:29:f3:c6:03:16:92:15:b3:c6:
                    a2:9e:bc:bf:7d:13:e1:0f:42:82:9a:54:1f:61:e5:
                    65:f1:b6:b4:31:b4:2f:41:f7:b5:52:04:66:9e:25:
                    02:24:b9:b5:87:d2:ea:bf:13:da:fb:f1:c4:6e:eb:
                    8f:6a:ae:27:df:08:54:03:74:52:27:65:8c:e5:bd:
                    de:47:a1:a3:db:e3:4a:d2:34:bb:0b:10:f2:3c:fc:
                    2d:0b:8d:a1:79:2a:26:a9:73:4c:97:60:53:ec:e9:
                    ca:bd:ae:50:48:41:d8:24:70:09:dd:3e:76:b7:15:
                    85:e3:8c:67:e1:62:80:1c:55:21:8e:6a:b1:07:1a:
                    1f:1b:70:80:cc:c3:71:e1:e0:34:3e:af:13:06:65:
                    cc:47:24:9d:b2:51:a2:78:32:f6:a0:30:d0:97:ec:
                    51:7a:9f:c0:ee:ed:fc:1f:35:fe:76:e8:e0:8a:3e:
                    42:53:29:bd:d9:a5:26:c0:b8:fb:fa:e7:6d:97:ad:
                    cf:13:46:a5:5f:3f:f4:4e:b7:d7:68:3e:0b:b5:ed:
                    ab:be:1e:45:ba:c2:53:b1:74:22:fa:b9:10:a8:f8:
                    ce:ae:1e:8e:ea:af:16:3d:68:67:68:8a:5c:2b:71:
                    98:fe:53:85:36:26:be:87:df:3e:02:1a:44:c4:d0:
                    c7:7a:74:d0:03:d2:65:04:94:26:db:00:9b:1e:f3:
                    b7:d8:25:c0:70:dd:c5:52:89:b2:46:46:e6:f8:78:
                    06:05:1a:81:e2:04:7a:0a:b7:e6:b6:07:42:49:8a:
                    96:67:6e:6d:41:70:d2:c8:44:52:63:d6:57:39:69:
                    10:af:d2:c6:8c:0a:7e:08:f6:1a:51:56:14:c7:c4:
                    0f:4f:d9:36:fe:d2:a5:2d:0a:42:03:fe:d2:90:bc:
                    83:e1:05:2e:81:d3:d9:1e:60:9e:9d:cf:9a:64:9d:
                    80:2d:c0:19:ab:64:1b:a3:34:a4:a2:18:36:98:7d:
                    7f:cc:13:33:c7:a5:7f:b2:a6:e4:58:fd:2f:f6:4f:
                    65:c1:7b:a9:1b:31:7a:e8:95:a2:45:1b:84:39:6c:
                    e2:f7:ea:90:64:85:6a:9c:85:eb:8d:52
        X509v3 extensions:
            X509v3 Basic Constraints: 
                CA:FALSE
            X509v3 Key Usage: 
                Digital Signature, Non Repudiation, Key Encipherment
            X509v3 Extended Key Usage: 
                OCSP Signing
    Signature Algorithm: falcon512
         39:e2:c0:4a:97:a6:58:f9:6f:d8:97:bb:86:65:81:af:d9:f8:
         47:b7:76:53:33:77:0e:15:41:23:d6:e3:49:29:6f:6f:db:60:
         d7:39:9c:0e:24:f4:cc:cd:cb:8a:b1:b8:97:8f:69:35:f1:56:
         7b:91:c6:6a:2b:99:ad:e7:14:41:a7:22:e9:9f:f1:85:60:f7:
         5b:96:61:0f:3b:6e:bf:df:0b:22:e0:4f:3b:9f:8e:95:fa:ce:
         ad:6e:11:08:cc:f9:d2:3a:11:a1:b7:4b:12:96:33:09:fb:49:
         bd:f1:c3:07:40:49:4c:2d:0c:6c:7e:1e:27:b5:35:63:77:8a:
         46:99:54:3f:38:a3:42:84:32:48:16:e5:2d:c4:5b:f2:5d:74:
         24:88:96:4f:0b:19:87:2e:53:73:93:b8:67:17:ca:7c:c1:50:
         79:29:e7:63:45:d3:f8:d1:9d:a9:41:be:e5:79:3f:39:f3:34:
         43:cf:15:8d:f1:ae:e9:51:e3:91:8e:25:d4:ca:ab:15:1d:ee:
         ca:22:eb:1b:21:06:4f:e6:84:62:5f:54:df:42:98:f8:6a:61:
         aa:e0:a2:e4:b5:8d:d9:de:c9:94:fb:13:85:ac:74:bf:3a:04:
         b9:3f:2e:32:d2:f1:cb:e3:6f:4a:2b:bf:a0:68:54:07:e5:09:
         65:ca:4c:82:83:c7:be:c4:38:ee:ec:13:e5:0b:48:0e:d7:ea:
         75:e6:4f:52:cd:b6:ae:3d:79:a4:e4:75:b3:a5:b1:97:fa:d5:
         93:9b:ed:73:40:b4:26:a6:d1:12:47:99:14:ad:20:a1:99:ab:
         75:6b:7b:d7:6c:24:90:1d:2e:f1:48:c5:a3:04:bf:77:86:2b:
         eb:eb:26:b8:c4:57:a9:f2:97:dc:8e:a0:f2:84:6f:e1:9b:2e:
         79:3c:9d:b8:a8:c7:09:4e:8d:7a:ca:e0:ad:a8:ca:bf:7a:cc:
         f5:27:d2:93:b3:f7:92:3f:29:6e:cb:6e:d8:f6:b8:6c:77:4a:
         2f:ad:af:54:9a:b9:22:a9:61:f1:e0:58:f7:c5:11:b7:a5:c4:
         91:83:c8:42:da:de:c1:43:29:d9:65:0a:1b:24:1e:34:e3:83:
         00:71:38:de:82:2b:1d:89:b2:56:a2:0b:75:3a:2f:13:ca:e0:
         e7:50:6d:71:4f:39:4f:f5:99:12:6a:bc:fa:9d:03:76:61:ea:
         c9:db:a6:9d:b7:fc:57:02:14:bf:f1:7b:b4:7b:64:51:69:52:
         d8:b7:82:7b:1b:91:a7:d9:61:ae:ad:a5:d8:9a:9e:70:df:3a:
         35:cb:12:a5:b2:4c:5a:b6:a5:d0:f5:d2:90:06:1c:ac:f7:d0:
         29:43:00:9f:c1:18:03:b5:03:47:19:be:e6:f3:bb:08:d1:e2:
         f1:b9:38:f6:69:10:41:b2:6e:2a:de:cb:42:e6:1f:b3:09:bb:
         ad:29:4c:5a:53:67:b9:22:3a:aa:19:76:76:f9:4f:5a:7b:fe:
         e9:d1:b9:8c:cd:1b:89:40:8f:7f:17:bc:0c:fd:0e:6a:b8:e8:
         e2:ae:8d:10:6c:5e:19:b8:79:3c:c5:52:38:cf:b3:97:3d:4c:
         a4:30:28:f6:45:92:79:9a:5a:4f:82:4d:b2:ed:c1:b4:f3:28:
         07:49:e7:ed:7e:db:26:65:c2:a7:29:fa:09:77:5e:5c:e0:ac:
         6d:54:5b:c7:61:fa:44:14:a6:11:95:4f:ef:39:2d:67:5d:9e:
         33:f3:a9:53:89:0b:80
-----BEGIN CERTIFICATE-----
MIIH/zCCBV6gAwIBAgIBATAHBgUrzg8DBjCBtzELMAkGA1UEBhMCVVMxETAPBgNV
BAgMCE1hcnlsYW5kMRIwEAYDVQQHDAlCYWx0aW1vcmUxITAfBgNVBAoMGEludGVy
bmV0IFdpZGdpdHMgUHR5IEx0ZDEjMCEGA1UECwwaU2VydmVyIFJlc2VhcmNoIERl
cGFydG1lbnQxGDAWBgNVBAMMD0ludGVybWVkaWF0ZV9DQTEfMB0GCSqGSIb3DQEJ
ARYQdGVzdEBleGFtcGxlLmNvbTAeFw0yMzA1MDQxNzA2MDBaFw0yNDA1MDMxNzA2
MDBaMIGsMQswCQYDVQQGEwJVUzERMA8GA1UECAwITWFyeWxhbmQxEjAQBgNVBAcM
CUJhbHRpbW9yZTEhMB8GA1UECgwYSW50ZXJuZXQgV2lkZ2l0cyBQdHkgTHRkMSMw
IQYDVQQLDBpTZXJ2ZXIgUmVzZWFyY2ggRGVwYXJ0bWVudDENMAsGA1UEAwwET0NT
UDEfMB0GCSqGSIb3DQEJARYQdGVzdEBleGFtcGxlLmNvbTCCA48wBwYFK84PAwYD
ggOCAAlF8FhgVFR2bnQNFZKNcJipXkV2mOWdFll4IJkfVCzSG/wSdI7m2fRemCpF
7TnS7VMOPwaVdhDMFrwGj5kalA2+YlsE6BfLfDz5BKkgGpuWqWK+B/ZTuhfzB8uV
rdwABSFRaY2FKQXCZW6VFJYK90NpV8g+iQ3WV3OamCfrL69qlY3Usgmkr017MhyV
SSil18vkThlCimdB7lhATZ4NRXmDOTDhPMEW6hBFfWLFDJuwW9G9iMhbSBfc86PL
7Tm43kzJyiDsFV1KSFJr3EVJG4CBqiOxfBdA/heKLgXVsA4CGbvisLr8192r0bIh
KxaJhMHQEDmhz3OuFxUIAcQ7FmD5KmBXhql4cHgeBIy0UrWn0+KTWPYFzSjBBdEK
KOuYSVNyR5LRlGM5YlbphE9OhEaZxmIiqqQBllkqojIL5GJGld2ijl3qC5yuzElR
1JDXlDEfaAd1S6NnKoSJsmFLsgf2ehgu2TAO9bGazKY6HjzweOdZLTVIYdUYwtUo
ZHx1DWEwoN3oNZngY0B9wHSDX0+TcRvD7Z/Lvf3SidBlVJD6w4X8RL1s3jIgJgdO
PYyYkkKTnx/85Sqfjid77Ei3uQqFUoIkqz2chGvK/LdwzXeCKJWbppV8v50iM3Ou
aC6NaQtqnYknhinzxgMWkhWzxqKevL99E+EPQoKaVB9h5WXxtrQxtC9B97VSBGae
JQIkubWH0uq/E9r78cRu649qriffCFQDdFInZYzlvd5HoaPb40rSNLsLEPI8/C0L
jaF5Kiapc0yXYFPs6cq9rlBIQdgkcAndPna3FYXjjGfhYoAcVSGOarEHGh8bcIDM
w3Hh4DQ+rxMGZcxHJJ2yUaJ4MvagMNCX7FF6n8Du7fwfNf526OCKPkJTKb3ZpSbA
uPv6522Xrc8TRqVfP/ROt9doPgu17au+HkW6wlOxdCL6uRCo+M6uHo7qrxY9aGdo
ilwrcZj+U4U2Jr6H3z4CGkTE0Md6dNAD0mUElCbbAJse87fYJcBw3cVSibJGRub4
eAYFGoHiBHoKt+a2B0JJipZnbm1BcNLIRFJj1lc5aRCv0saMCn4I9hpRVhTHxA9P
2Tb+0qUtCkID/tKQvIPhBS6B09keYJ6dz5pknYAtwBmrZBujNKSiGDaYfX/MEzPH
pX+ypuRY/S/2T2XBe6kbMXrolaJFG4Q5bOL36pBkhWqcheuNUqMvMC0wCQYDVR0T
BAIwADALBgNVHQ8EBAMCBeAwEwYDVR0lBAwwCgYIKwYBBQUHAwkwBwYFK84PAwYD
ggKQADniwEqXplj5b9iXu4Zlga/Z+Ee3dlMzdw4VQSPW40kpb2/bYNc5nA4k9MzN
y4qxuJePaTXxVnuRxmorma3nFEGnIumf8YVg91uWYQ87br/fCyLgTzufjpX6zq1u
EQjM+dI6EaG3SxKWMwn7Sb3xwwdASUwtDGx+Hie1NWN3ikaZVD84o0KEMkgW5S3E
W/JddCSIlk8LGYcuU3OTuGcXynzBUHkp52NF0/jRnalBvuV5PznzNEPPFY3xrulR
45GOJdTKqxUd7soi6xshBk/mhGJfVN9CmPhqYargouS1jdneyZT7E4WsdL86BLk/
LjLS8cvjb0orv6BoVAflCWXKTIKDx77EOO7sE+ULSA7X6nXmT1LNtq49eaTkdbOl
sZf61ZOb7XNAtCam0RJHmRStIKGZq3Vre9dsJJAdLvFIxaMEv3eGK+vrJrjEV6ny
l9yOoPKEb+GbLnk8nbioxwlOjXrK4K2oyr96zPUn0pOz95I/KW7Lbtj2uGx3Si+t
r1SauSKpYfHgWPfFEbelxJGDyELa3sFDKdllChskHjTjgwBxON6CKx2JslaiC3U6
LxPK4OdQbXFPOU/1mRJqvPqdA3Zh6snbpp23/FcCFL/xe7R7ZFFpUti3gnsbkafZ
Ya6tpdiannDfOjXLEqWyTFq2pdD10pAGHKz30ClDAJ/BGAO1A0cZvubzuwjR4vG5
OPZpEEGybirey0LmH7MJu60pTFpTZ7kiOqoZdnb5T1p7/unRuYzNG4lAj38XvAz9
Dmq46OKujRBsXhm4eTzFUjjPs5c9TKQwKPZFknmaWk+CTbLtwbTzKAdJ5+1+2yZl
wqcp+gl3XlzgrG1UW8dh+kQUphGVT+85LWddnjPzqVOJC4A=
-----END CERTIFICATE-----
