Certificate:
    Data:
        Version: 3 (0x2)
        Serial Number: 3 (0x3)
        Signature Algorithm: falcon512
        Issuer: C=US, ST=Maryland, L=Baltimore, O=Internet Widgits Pty Ltd, OU=Server Research Department, CN=Intermediate_CA/emailAddress=test@example.com
        Validity
            Not Before: May  4 17:06:00 2023 GMT
            Not After : May  3 17:06:00 2024 GMT
        Subject: C=US, ST=Maryland, L=Baltimore, O=Internet Widgits Pty Ltd, OU=Server Research Department, CN=User/emailAddress=test@example.com
        Subject Public Key Info:
            Public Key Algorithm: falcon512
                falcon512 Public-Key:
                pub:
                    09:4d:86:07:30:59:8f:80:56:68:65:04:84:a7:8f:
                    63:fc:35:11:6b:d6:02:28:35:18:9a:9b:99:7c:82:
                    41:3f:64:26:e0:16:7a:16:40:cb:8e:56:d5:37:d5:
                    ed:68:d5:e2:2b:4b:42:b2:95:b7:1d:a4:64:f6:e7:
                    f8:9c:de:65:5d:09:a6:29:ee:c8:29:46:a0:24:5b:
                    0b:60:27:b3:3d:ad:d7:4b:ab:09:49:35:e6:ea:9c:
                    1b:78:a0:44:0c:72:01:ec:32:77:c2:36:d4:28:52:
                    cb:af:a0:c1:78:05:4d:de:77:9c:67:3a:b2:01:21:
                    94:dd:8c:70:83:a4:55:a4:ca:27:ea:c4:d0:c7:41:
                    6e:c4:96:a2:6b:1f:a1:66:e8:57:24:84:26:5a:e8:
                    19:c4:41:89:6a:1a:4e:6c:69:a5:a5:f8:74:28:e2:
                    44:7e:84:f9:4e:86:29:58:14:64:a7:2e:4d:5d:49:
                    5a:e9:6a:23:59:14:44:58:6a:df:84:fe:82:88:42:
                    03:f0:26:61:fd:e9:15:14:4a:10:bc:12:93:3f:22:
                    31:3e:01:34:d0:46:8e:b7:09:16:a4:46:d4:51:fc:
                    be:90:40:6b:60:5e:4e:5a:95:6c:50:63:13:29:67:
                    a6:dd:b1:4a:9b:37:4d:1c:09:26:9d:08:88:60:da:
                    43:69:50:63:57:24:86:39:54:f7:86:70:50:8e:ca:
                    4b:64:17:ad:67:e2:13:46:c4:6e:9b:7d:f5:10:3b:
                    35:48:dc:2c:24:7d:db:2a:16:14:4e:e0:b4:b2:75:
                    03:04:01:f5:56:d6:e0:c2:25:0c:6d:f7:38:40:63:
                    cc:38:86:52:e9:12:c9:c9:5a:69:59:82:90:60:e2:
                    35:c2:33:c1:b9:ec:55:09:32:42:56:5d:a8:04:b9:
                    68:20:79:75:c1:aa:32:ae:ed:e5:3a:d1:b5:3c:c6:
                    2c:3a:42:d2:3c:3f:ba:f4:5b:d6:89:c9:03:f1:d9:
                    e2:37:20:a1:3e:3e:6d:c2:e7:ea:2e:b9:44:6b:f1:
                    4a:c9:05:af:10:cb:a7:e2:98:98:29:e2:d6:53:d3:
                    6d:be:1b:f6:8a:88:7d:eb:a4:a6:49:0c:41:c1:de:
                    9b:7f:64:67:a4:ec:cb:3e:45:a1:0f:86:a6:8d:af:
                    1c:10:5f:0b:19:9b:73:26:e9:64:b8:f7:e3:ba:8f:
                    31:de:9b:69:0f:f9:61:36:1a:4a:dd:e3:f3:7c:2d:
                    e3:ca:ce:69:75:a1:9e:fa:41:d4:6f:10:aa:92:fb:
                    a8:a9:23:f1:27:5c:40:01:4e:a2:72:2e:5e:a0:50:
                    54:88:bb:5f:b9:25:94:8b:2b:e8:86:b8:bf:b5:c7:
                    44:00:45:40:d2:81:99:cd:5e:43:72:2c:33:59:4d:
                    12:b5:f8:cf:33:e4:01:d1:a8:90:19:20:27:10:1f:
                    09:d2:19:a8:74:c3:2a:7c:c5:23:2a:dd:0e:c2:08:
                    a2:e1:05:22:1c:6d:28:9d:ff:78:2e:c4:53:46:f8:
                    18:ca:e8:2b:96:40:f1:8a:d6:a0:e9:20:40:31:4a:
                    30:8e:8d:36:10:22:ee:92:3d:12:aa:b3:8a:37:d8:
                    7f:ad:89:a1:6a:af:14:9c:a5:a9:ad:c5:df:96:e3:
                    d3:a7:42:59:15:34:27:2d:aa:a6:c8:82:c3:72:9f:
                    ab:37:3e:76:f5:df:6c:d9:b2:7a:de:29:9f:ec:3c:
                    79:6c:79:fa:41:0e:9f:7a:72:eb:22:c5:db:30:ae:
                    40:d5:76:9a:a2:6c:b4:48:5d:c2:46:e2:cf:81:b5:
                    f0:5b:4a:6c:c7:84:14:de:08:f9:e7:ea:79:4e:cd:
                    57:bc:e6:d1:b3:a4:c3:95:c9:95:ca:8e:55:b6:24:
                    c5:42:82:1e:29:a2:48:c8:29:d7:99:4e:7d:63:56:
                    2e:55:08:d2:63:c0:2b:d3:a2:2b:8d:e4:e9:80:e5:
                    d7:5f:d9:76:cb:b3:de:3d:5e:d9:0f:09:b3:6a:06:
                    54:c4:cb:c1:df:65:4a:8d:bd:ea:12:9a:4b:04:3a:
                    89:1c:d6:e2:81:46:35:e0:78:bb:13:2e:ed:75:fd:
                    36:a0:19:1e:16:5e:ae:91:b4:d1:e5:57:9b:82:44:
                    0a:88:a7:50:67:f9:cc:1a:af:5a:7f:37:81:4e:81:
                    51:14:3a:4f:6e:9e:84:13:62:6f:a4:e8:80:68:f2:
                    c9:0b:89:3e:4d:94:bb:87:a4:96:55:94:81:04:da:
                    02:a5:ea:5a:4a:7f:de:5d:79:fa:cc:a9:29:19:07:
                    98:ce:ff:68:eb:ab:ed:03:c4:c1:d8:0d:ce:09:39:
                    74:61:61:2d:4e:fc:6f:2c:ea:15:91:e1:10:b4:84:
                    53:86:f1:da:9d:3f:c1:64:e6:50:80:6d
        X509v3 extensions:
            X509v3 Basic Constraints: critical
                CA:FALSE
            X509v3 Subject Key Identifier: 
                88:97:59:51:77:C7:67:66:83:6D:CF:C1:43:AE:AC:D6:0A:D7:79:B7
            X509v3 Authority Key Identifier: 
                keyid:C3:3E:97:0B:00:83:F0:31:98:BB:C6:9B:C1:35:85:42:79:3E:18:6B
                DirName:/C=US/ST=Maryland/L=Baltimore/O=Internet Widgits Pty Ltd/OU=Server Research Department/CN=Root_CA/emailAddress=test@example.com
                serial:01

            X509v3 Key Usage: 
                Digital Signature, Non Repudiation, Key Encipherment
            X509v3 Extended Key Usage: 
                TLS Web Client Authentication
            Authority Information Access: 
                OCSP - URI:http://ocsp:8080

    Signature Algorithm: falcon512
         39:de:83:37:9b:88:2e:b5:f6:16:04:89:eb:b0:c9:e8:09:7b:
         5c:45:c1:2b:dc:bd:86:89:35:72:85:eb:6d:7d:c0:89:4d:43:
         83:01:71:b0:46:c6:49:8d:0d:40:eb:cd:92:e7:73:42:e5:e2:
         19:3a:17:92:37:10:4f:7d:f2:ef:80:bb:56:b2:d1:5a:c7:5d:
         8c:ac:46:56:06:fd:95:96:f9:50:0c:27:85:5e:e9:7c:7c:db:
         62:c7:bb:21:0a:1a:d4:86:21:cd:7c:f9:df:d5:e7:e7:ee:cf:
         ef:34:4f:5a:f8:ac:5b:84:ab:d5:75:fa:9a:47:15:4c:6f:3d:
         fc:df:6e:61:21:52:56:36:2b:55:98:67:36:36:34:c3:5e:96:
         c7:a4:8d:02:09:33:43:e4:44:92:f9:37:8e:f7:18:43:11:1a:
         2b:6c:87:c2:46:cc:8b:0e:ee:b8:d8:f1:75:9d:e8:2e:44:bb:
         f0:90:39:7e:aa:27:0b:8c:ec:5b:ae:b5:5d:61:e1:2a:ec:a4:
         2b:0a:a1:d0:e8:6c:82:31:8f:69:ea:ee:8c:33:82:5f:d2:0b:
         6f:89:24:49:b0:55:95:65:17:6e:98:79:42:a8:cb:ce:61:e8:
         c3:77:b7:de:23:37:33:c5:ef:58:ca:75:29:13:c5:aa:08:5a:
         12:44:ed:b0:85:0f:5b:82:3a:3b:3e:d6:b9:6d:b9:6a:1b:34:
         4b:4b:87:55:c8:dd:ba:79:4c:df:e8:92:69:8a:1c:d1:12:59:
         ce:3d:54:66:4a:a1:4f:b9:ac:4a:26:ff:03:0f:95:b7:79:1e:
         9b:85:1f:a5:32:2c:c2:8e:80:7a:16:2d:ae:61:e3:d5:69:1b:
         fd:44:bf:0f:c4:44:5a:ad:26:e1:87:52:d1:38:26:83:31:0c:
         10:53:85:a6:31:d5:3c:12:93:82:99:3b:90:c5:92:9d:ec:b0:
         6b:61:6a:e9:c8:ac:6b:1b:d9:76:1e:cf:aa:7d:af:a8:4e:69:
         49:77:a0:75:2c:03:c4:82:7a:e4:33:42:ba:b4:14:9e:81:e3:
         cc:33:35:e1:90:25:ce:0a:65:a1:9a:ab:b4:1d:33:b9:a7:57:
         49:d9:80:78:f1:30:1d:66:15:6b:41:54:3b:55:85:ac:da:1d:
         5f:85:3e:85:20:60:89:f4:da:17:37:79:17:34:49:70:c6:21:
         af:12:11:88:66:4d:71:e5:d2:70:d1:a8:66:14:47:91:46:a5:
         5c:9f:e1:50:66:b8:d2:f4:ef:16:84:5d:de:64:de:87:ef:28:
         21:c4:96:a0:b9:c1:d4:d5:5f:93:25:fc:b9:94:86:e3:d9:b6:
         34:df:48:5a:c8:63:8f:f7:0f:32:60:60:d3:24:50:f5:c4:31:
         58:94:d1:3b:8a:24:fe:82:3d:85:6a:60:0e:02:3b:f7:98:0c:
         63:12:e9:d7:34:f1:b4:e2:f9:96:69:e3:f9:44:cb:0b:ab:a8:
         b1:f9:94:44:86:f1:60:ef:72:c5:d0:b8:73:10:43:d9:70:8a:
         a2:38:a6:8a:30:cc:22:48:19:02:e4:c7:da:2a:ee:44:dd:ed:
         9b:2d:de:8d:86:79:28:b6:e4:ff:1b:fa:40:ff:18:33:25:5d:
         40:f4:f9:96:72:02:cb:e1:92:34:ea:81:6a:df:bd:9b:58:8e:
         9f:e5:d4:a0:a0:05:f9:93:27:cd:8c:04:8e:38:c8:b3:5d:e2:
         56:a9:b4:3f:44:da
-----BEGIN CERTIFICATE-----
MIIJMTCCBpGgAwIBAgIBAzAHBgUrzg8DBjCBtzELMAkGA1UEBhMCVVMxETAPBgNV
BAgMCE1hcnlsYW5kMRIwEAYDVQQHDAlCYWx0aW1vcmUxITAfBgNVBAoMGEludGVy
bmV0IFdpZGdpdHMgUHR5IEx0ZDEjMCEGA1UECwwaU2VydmVyIFJlc2VhcmNoIERl
cGFydG1lbnQxGDAWBgNVBAMMD0ludGVybWVkaWF0ZV9DQTEfMB0GCSqGSIb3DQEJ
ARYQdGVzdEBleGFtcGxlLmNvbTAeFw0yMzA1MDQxNzA2MDBaFw0yNDA1MDMxNzA2
MDBaMIGsMQswCQYDVQQGEwJVUzERMA8GA1UECAwITWFyeWxhbmQxEjAQBgNVBAcM
CUJhbHRpbW9yZTEhMB8GA1UECgwYSW50ZXJuZXQgV2lkZ2l0cyBQdHkgTHRkMSMw
IQYDVQQLDBpTZXJ2ZXIgUmVzZWFyY2ggRGVwYXJ0bWVudDENMAsGA1UEAwwEVXNl
cjEfMB0GCSqGSIb3DQEJARYQdGVzdEBleGFtcGxlLmNvbTCCA48wBwYFK84PAwYD
ggOCAAlNhgcwWY+AVmhlBISnj2P8NRFr1gIoNRiam5l8gkE/ZCbgFnoWQMuOVtU3
1e1o1eIrS0KylbcdpGT25/ic3mVdCaYp7sgpRqAkWwtgJ7M9rddLqwlJNebqnBt4
oEQMcgHsMnfCNtQoUsuvoMF4BU3ed5xnOrIBIZTdjHCDpFWkyifqxNDHQW7ElqJr
H6Fm6FckhCZa6BnEQYlqGk5saaWl+HQo4kR+hPlOhilYFGSnLk1dSVrpaiNZFERY
at+E/oKIQgPwJmH96RUUShC8EpM/IjE+ATTQRo63CRakRtRR/L6QQGtgXk5alWxQ
YxMpZ6bdsUqbN00cCSadCIhg2kNpUGNXJIY5VPeGcFCOyktkF61n4hNGxG6bffUQ
OzVI3CwkfdsqFhRO4LSydQMEAfVW1uDCJQxt9zhAY8w4hlLpEsnJWmlZgpBg4jXC
M8G57FUJMkJWXagEuWggeXXBqjKu7eU60bU8xiw6QtI8P7r0W9aJyQPx2eI3IKE+
Pm3C5+ouuURr8UrJBa8Qy6fimJgp4tZT022+G/aKiH3rpKZJDEHB3pt/ZGek7Ms+
RaEPhqaNrxwQXwsZm3Mm6WS49+O6jzHem2kP+WE2Gkrd4/N8LePKzml1oZ76QdRv
EKqS+6ipI/EnXEABTqJyLl6gUFSIu1+5JZSLK+iGuL+1x0QARUDSgZnNXkNyLDNZ
TRK1+M8z5AHRqJAZICcQHwnSGah0wyp8xSMq3Q7CCKLhBSIcbSid/3guxFNG+BjK
6CuWQPGK1qDpIEAxSjCOjTYQIu6SPRKqs4o32H+tiaFqrxScpamtxd+W49OnQlkV
NCctqqbIgsNyn6s3Pnb132zZsnreKZ/sPHlsefpBDp96cusixdswrkDVdpqibLRI
XcJG4s+BtfBbSmzHhBTeCPnn6nlOzVe85tGzpMOVyZXKjlW2JMVCgh4pokjIKdeZ
Tn1jVi5VCNJjwCvToiuN5OmA5ddf2XbLs949XtkPCbNqBlTEy8HfZUqNveoSmksE
Ookc1uKBRjXgeLsTLu11/TagGR4WXq6RtNHlV5uCRAqIp1Bn+cwar1p/N4FOgVEU
Ok9unoQTYm+k6IBo8skLiT5NlLuHpJZVlIEE2gKl6lpKf95defrMqSkZB5jO/2jr
q+0DxMHYDc4JOXRhYS1O/G8s6hWR4RC0hFOG8dqdP8Fk5lCAbaOCAWAwggFcMAwG
A1UdEwEB/wQCMAAwHQYDVR0OBBYEFIiXWVF3x2dmg23PwUOurNYK13m3MIHcBgNV
HSMEgdQwgdGAFMM+lwsAg/AxmLvGm8E1hUJ5PhhroYG1pIGyMIGvMQswCQYDVQQG
EwJVUzERMA8GA1UECAwITWFyeWxhbmQxEjAQBgNVBAcMCUJhbHRpbW9yZTEhMB8G
A1UECgwYSW50ZXJuZXQgV2lkZ2l0cyBQdHkgTHRkMSMwIQYDVQQLDBpTZXJ2ZXIg
UmVzZWFyY2ggRGVwYXJ0bWVudDEQMA4GA1UEAwwHUm9vdF9DQTEfMB0GCSqGSIb3
DQEJARYQdGVzdEBleGFtcGxlLmNvbYIBATALBgNVHQ8EBAMCBeAwEwYDVR0lBAww
CgYIKwYBBQUHAwIwLAYIKwYBBQUHAQEEIDAeMBwGCCsGAQUFBzABhhBodHRwOi8v
b2NzcDo4MDgwMAcGBSvODwMGA4ICjwA53oM3m4gutfYWBInrsMnoCXtcRcEr3L2G
iTVyhettfcCJTUODAXGwRsZJjQ1A682S53NC5eIZOheSNxBPffLvgLtWstFax12M
rEZWBv2VlvlQDCeFXul8fNtix7shChrUhiHNfPnf1efn7s/vNE9a+KxbhKvVdfqa
RxVMbz38325hIVJWNitVmGc2NjTDXpbHpI0CCTND5ESS+TeO9xhDERorbIfCRsyL
Du642PF1neguRLvwkDl+qicLjOxbrrVdYeEq7KQrCqHQ6GyCMY9p6u6MM4Jf0gtv
iSRJsFWVZRdumHlCqMvOYejDd7feIzczxe9YynUpE8WqCFoSRO2whQ9bgjo7Pta5
bblqGzRLS4dVyN26eUzf6JJpihzRElnOPVRmSqFPuaxKJv8DD5W3eR6bhR+lMizC
joB6Fi2uYePVaRv9RL8PxERarSbhh1LROCaDMQwQU4WmMdU8EpOCmTuQxZKd7LBr
YWrpyKxrG9l2Hs+qfa+oTmlJd6B1LAPEgnrkM0K6tBSegePMMzXhkCXOCmWhmqu0
HTO5p1dJ2YB48TAdZhVrQVQ7VYWs2h1fhT6FIGCJ9NoXN3kXNElwxiGvEhGIZk1x
5dJw0ahmFEeRRqVcn+FQZrjS9O8WhF3eZN6H7yghxJagucHU1V+TJfy5lIbj2bY0
30hayGOP9w8yYGDTJFD1xDFYlNE7iiT+gj2FamAOAjv3mAxjEunXNPG04vmWaeP5
RMsLq6ix+ZREhvFg73LF0LhzEEPZcIqiOKaKMMwiSBkC5MfaKu5E3e2bLd6Nhnko
tuT/G/pA/xgzJV1A9PmWcgLL4ZI06oFq372bWI6f5dSgoAX5kyfNjASOOMizXeJW
qbQ/RNo=
-----END CERTIFICATE-----
