Certificate:
    Data:
        Version: 3 (0x2)
        Serial Number: 2 (0x2)
        Signature Algorithm: ED25519
        Issuer: C=US, ST=Maryland, L=Baltimore, O=Internet Widgits Pty Ltd, OU=Server Research Department, CN=Intermediate_CA/emailAddress=test@example.com
        Validity
            Not Before: May  7 18:15:56 2023 GMT
            Not After : May  6 18:15:56 2024 GMT
        Subject: C=US, ST=Maryland, L=Baltimore, O=Internet Widgits Pty Ltd, OU=Server Research Department, CN=Server/emailAddress=test@example.com
        Subject Public Key Info:
            Public Key Algorithm: ED25519
                ED25519 Public-Key:
                pub:
                    90:ca:2f:c8:14:bf:36:7f:6b:47:2e:2f:e1:70:f9:
                    24:d4:4a:01:03:12:87:87:e0:42:3b:b0:8d:d8:5c:
                    0c:bb
        X509v3 extensions:
            X509v3 Basic Constraints: critical
                CA:FALSE
            X509v3 Subject Key Identifier: 
                F4:95:FC:DE:31:DF:86:AB:4E:80:4C:B2:FA:E7:ED:D5:DC:CB:ED:FB
            X509v3 Authority Key Identifier: 
                keyid:8E:10:89:65:88:DF:F4:97:BC:7C:5C:A4:4C:30:0F:50:6A:79:D9:48
                DirName:/C=US/ST=Maryland/L=Baltimore/O=Internet Widgits Pty Ltd/OU=Server Research Department/CN=Root_CA/emailAddress=test@example.com
                serial:01

            X509v3 Key Usage: 
                Digital Signature, Non Repudiation, Key Encipherment, Key Agreement
            X509v3 Extended Key Usage: 
                TLS Web Server Authentication
    Signature Algorithm: ED25519
         ed:35:ff:6b:2f:07:b6:a7:ca:52:76:ff:55:c9:80:f2:5a:f5:
         65:a2:19:de:54:8b:23:a0:ea:bd:1f:d5:cc:da:2e:db:77:ae:
         28:fb:0b:64:c0:8c:ef:18:3b:bb:17:c3:1c:dc:27:9a:4c:68:
         14:3f:a6:9a:5a:ae:bf:0b:1e:07
-----BEGIN CERTIFICATE-----
MIIDSjCCAvygAwIBAgIBAjAFBgMrZXAwgbcxCzAJBgNVBAYTAlVTMREwDwYDVQQI
DAhNYXJ5bGFuZDESMBAGA1UEBwwJQmFsdGltb3JlMSEwHwYDVQQKDBhJbnRlcm5l
dCBXaWRnaXRzIFB0eSBMdGQxIzAhBgNVBAsMGlNlcnZlciBSZXNlYXJjaCBEZXBh
cnRtZW50MRgwFgYDVQQDDA9JbnRlcm1lZGlhdGVfQ0ExHzAdBgkqhkiG9w0BCQEW
EHRlc3RAZXhhbXBsZS5jb20wHhcNMjMwNTA3MTgxNTU2WhcNMjQwNTA2MTgxNTU2
WjCBrjELMAkGA1UEBhMCVVMxETAPBgNVBAgMCE1hcnlsYW5kMRIwEAYDVQQHDAlC
YWx0aW1vcmUxITAfBgNVBAoMGEludGVybmV0IFdpZGdpdHMgUHR5IEx0ZDEjMCEG
A1UECwwaU2VydmVyIFJlc2VhcmNoIERlcGFydG1lbnQxDzANBgNVBAMMBlNlcnZl
cjEfMB0GCSqGSIb3DQEJARYQdGVzdEBleGFtcGxlLmNvbTAqMAUGAytlcAMhAJDK
L8gUvzZ/a0cuL+Fw+STUSgEDEoeH4EI7sI3YXAy7o4IBMjCCAS4wDAYDVR0TAQH/
BAIwADAdBgNVHQ4EFgQU9JX83jHfhqtOgEyy+uft1dzL7fswgdwGA1UdIwSB1DCB
0YAUjhCJZYjf9Je8fFykTDAPUGp52UihgbWkgbIwga8xCzAJBgNVBAYTAlVTMREw
DwYDVQQIDAhNYXJ5bGFuZDESMBAGA1UEBwwJQmFsdGltb3JlMSEwHwYDVQQKDBhJ
bnRlcm5ldCBXaWRnaXRzIFB0eSBMdGQxIzAhBgNVBAsMGlNlcnZlciBSZXNlYXJj
aCBEZXBhcnRtZW50MRAwDgYDVQQDDAdSb290X0NBMR8wHQYJKoZIhvcNAQkBFhB0
ZXN0QGV4YW1wbGUuY29tggEBMAsGA1UdDwQEAwID6DATBgNVHSUEDDAKBggrBgEF
BQcDATAFBgMrZXADQQDtNf9rLwe2p8pSdv9VyYDyWvVlohneVIsjoOq9H9XM2i7b
d64o+wtkwIzvGDu7F8Mc3CeaTGgUP6aaWq6/Cx4H
-----END CERTIFICATE-----
