Certificate:
    Data:
        Version: 3 (0x2)
        Serial Number: 1 (0x1)
        Signature Algorithm: ED25519
        Issuer: C=US, ST=Maryland, L=Baltimore, O=Internet Widgits Pty Ltd, OU=Server Research Department, CN=Intermediate_CA/emailAddress=test@example.com
        Validity
            Not Before: May  7 18:15:56 2023 GMT
            Not After : May  6 18:15:56 2024 GMT
        Subject: C=US, ST=Maryland, L=Baltimore, O=Internet Widgits Pty Ltd, OU=Server Research Department, CN=OCSP/emailAddress=test@example.com
        Subject Public Key Info:
            Public Key Algorithm: ED25519
                ED25519 Public-Key:
                pub:
                    d9:ff:db:4c:cf:2f:8b:1a:7b:1d:dd:0a:4b:a1:71:
                    ae:35:c3:65:18:79:91:a2:fa:1a:0f:42:54:c6:3b:
                    f8:4b
        X509v3 extensions:
            X509v3 Basic Constraints: 
                CA:FALSE
            X509v3 Key Usage: 
                Digital Signature, Non Repudiation, Key Encipherment
            X509v3 Extended Key Usage: 
                OCSP Signing
    Signature Algorithm: ED25519
         8f:a9:95:62:88:8c:03:af:ce:23:bd:16:68:1e:c7:fd:65:89:
         a5:15:ab:6e:85:d5:12:62:e4:d6:a7:e8:74:0d:d0:34:08:bf:
         ff:ce:28:1a:7d:58:9e:9f:cf:f2:4a:24:2e:24:7a:7b:df:69:
         5d:01:b6:29:1c:37:b9:06:e0:07
-----BEGIN CERTIFICATE-----
MIICQzCCAfWgAwIBAgIBATAFBgMrZXAwgbcxCzAJBgNVBAYTAlVTMREwDwYDVQQI
DAhNYXJ5bGFuZDESMBAGA1UEBwwJQmFsdGltb3JlMSEwHwYDVQQKDBhJbnRlcm5l
dCBXaWRnaXRzIFB0eSBMdGQxIzAhBgNVBAsMGlNlcnZlciBSZXNlYXJjaCBEZXBh
cnRtZW50MRgwFgYDVQQDDA9JbnRlcm1lZGlhdGVfQ0ExHzAdBgkqhkiG9w0BCQEW
EHRlc3RAZXhhbXBsZS5jb20wHhcNMjMwNTA3MTgxNTU2WhcNMjQwNTA2MTgxNTU2
WjCBrDELMAkGA1UEBhMCVVMxETAPBgNVBAgMCE1hcnlsYW5kMRIwEAYDVQQHDAlC
YWx0aW1vcmUxITAfBgNVBAoMGEludGVybmV0IFdpZGdpdHMgUHR5IEx0ZDEjMCEG
A1UECwwaU2VydmVyIFJlc2VhcmNoIERlcGFydG1lbnQxDTALBgNVBAMMBE9DU1Ax
HzAdBgkqhkiG9w0BCQEWEHRlc3RAZXhhbXBsZS5jb20wKjAFBgMrZXADIQDZ/9tM
zy+LGnsd3QpLoXGuNcNlGHmRovoaD0JUxjv4S6MvMC0wCQYDVR0TBAIwADALBgNV
HQ8EBAMCBeAwEwYDVR0lBAwwCgYIKwYBBQUHAwkwBQYDK2VwA0EAj6mVYoiMA6/O
I70WaB7H/WWJpRWrboXVEmLk1qfodA3QNAi//84oGn1Ynp/P8kokLiR6e99pXQG2
KRw3uQbgBw==
-----END CERTIFICATE-----
