Certificate:
    Data:
        Version: 3 (0x2)
        Serial Number: 1 (0x1)
        Signature Algorithm: ED25519
        Issuer: C=US, ST=Maryland, L=Baltimore, O=Internet Widgits Pty Ltd, OU=Server Research Department, CN=Root_CA/emailAddress=test@example.com
        Validity
            Not Before: May  7 18:15:56 2023 GMT
            Not After : May  6 18:15:56 2024 GMT
        Subject: C=US, ST=Maryland, L=Baltimore, O=Internet Widgits Pty Ltd, OU=Server Research Department, CN=Intermediate_CA/emailAddress=test@example.com
        Subject Public Key Info:
            Public Key Algorithm: ED25519
                ED25519 Public-Key:
                pub:
                    8e:9d:c4:1b:20:4f:55:e6:d2:db:4d:6b:fe:14:29:
                    3c:5e:e2:2b:f1:83:eb:ce:b1:ce:ae:ee:e8:00:19:
                    2c:2b
        X509v3 extensions:
            X509v3 Basic Constraints: critical
                CA:TRUE
            X509v3 Subject Key Identifier: 
                8E:10:89:65:88:DF:F4:97:BC:7C:5C:A4:4C:30:0F:50:6A:79:D9:48
            X509v3 Authority Key Identifier: 
                keyid:2F:23:8B:6B:37:9C:D0:5F:20:57:B6:96:5E:88:57:0B:B7:7F:96:E7
                DirName:/C=US/ST=Maryland/L=Baltimore/O=Internet Widgits Pty Ltd/OU=Server Research Department/CN=Root_CA/emailAddress=test@example.com
                serial:3F:34:6D:CE:3C:59:72:CE:16:86:14:22:F0:26:A4:B5:3D:9E:28:2C

            X509v3 Key Usage: critical
                Certificate Sign, CRL Sign
    Signature Algorithm: ED25519
         05:be:59:c4:b1:5b:df:6b:ca:7c:37:63:d8:f5:65:26:43:85:
         6c:e8:61:a0:a5:5c:b9:51:fa:d9:58:e1:34:1a:45:46:aa:56:
         d4:d6:e0:75:83:c2:9a:ed:9c:0d:b1:a4:83:71:4f:12:d7:f1:
         47:32:41:ab:f8:f4:e5:e7:ea:05
-----BEGIN CERTIFICATE-----
MIIDTzCCAwGgAwIBAgIBATAFBgMrZXAwga8xCzAJBgNVBAYTAlVTMREwDwYDVQQI
DAhNYXJ5bGFuZDESMBAGA1UEBwwJQmFsdGltb3JlMSEwHwYDVQQKDBhJbnRlcm5l
dCBXaWRnaXRzIFB0eSBMdGQxIzAhBgNVBAsMGlNlcnZlciBSZXNlYXJjaCBEZXBh
cnRtZW50MRAwDgYDVQQDDAdSb290X0NBMR8wHQYJKoZIhvcNAQkBFhB0ZXN0QGV4
YW1wbGUuY29tMB4XDTIzMDUwNzE4MTU1NloXDTI0MDUwNjE4MTU1NlowgbcxCzAJ
BgNVBAYTAlVTMREwDwYDVQQIDAhNYXJ5bGFuZDESMBAGA1UEBwwJQmFsdGltb3Jl
MSEwHwYDVQQKDBhJbnRlcm5ldCBXaWRnaXRzIFB0eSBMdGQxIzAhBgNVBAsMGlNl
cnZlciBSZXNlYXJjaCBEZXBhcnRtZW50MRgwFgYDVQQDDA9JbnRlcm1lZGlhdGVf
Q0ExHzAdBgkqhkiG9w0BCQEWEHRlc3RAZXhhbXBsZS5jb20wKjAFBgMrZXADIQCO
ncQbIE9V5tLbTWv+FCk8XuIr8YPrzrHOru7oABksK6OCATYwggEyMA8GA1UdEwEB
/wQFMAMBAf8wHQYDVR0OBBYEFI4QiWWI3/SXvHxcpEwwD1BqedlIMIHvBgNVHSME
gecwgeSAFC8ji2s3nNBfIFe2ll6IVwu3f5bnoYG1pIGyMIGvMQswCQYDVQQGEwJV
UzERMA8GA1UECAwITWFyeWxhbmQxEjAQBgNVBAcMCUJhbHRpbW9yZTEhMB8GA1UE
CgwYSW50ZXJuZXQgV2lkZ2l0cyBQdHkgTHRkMSMwIQYDVQQLDBpTZXJ2ZXIgUmVz
ZWFyY2ggRGVwYXJ0bWVudDEQMA4GA1UEAwwHUm9vdF9DQTEfMB0GCSqGSIb3DQEJ
ARYQdGVzdEBleGFtcGxlLmNvbYIUPzRtzjxZcs4WhhQi8CaktT2eKCwwDgYDVR0P
AQH/BAQDAgEGMAUGAytlcANBAAW+WcSxW99rynw3Y9j1ZSZDhWzoYaClXLlR+tlY
4TQaRUaqVtTW4HWDwprtnA2xpINxTxLX8UcyQav49OXn6gU=
-----END CERTIFICATE-----
