Certificate:
    Data:
        Version: 3 (0x2)
        Serial Number: 1 (0x1)
        Signature Algorithm: sha256WithRSAEncryption
        Issuer: C=US, ST=Maryland, L=Baltimore, O=Internet Widgits Pty Ltd, OU=Server Research Department, CN=Intermediate_CA/emailAddress=test@example.com
        Validity
            Not Before: May  4 17:05:59 2023 GMT
            Not After : May  3 17:05:59 2024 GMT
        Subject: C=US, ST=Maryland, L=Baltimore, O=Internet Widgits Pty Ltd, OU=Server Research Department, CN=OCSP/emailAddress=test@example.com
        Subject Public Key Info:
            Public Key Algorithm: rsaEncryption
                RSA Public-Key: (4096 bit)
                Modulus:
                    00:bf:b3:1f:fe:62:be:75:85:02:e6:d5:69:cb:5f:
                    f7:a7:2a:49:6d:ea:f7:95:0e:58:e2:d4:c4:a0:eb:
                    72:b0:5e:27:b7:d6:95:ef:63:83:42:a9:0b:07:39:
                    bf:cf:43:3d:7d:d4:9f:d6:77:90:6c:4b:2b:1e:d7:
                    49:b3:40:9c:2b:80:ed:bb:ad:1e:58:c8:62:6a:1d:
                    36:56:b0:32:b1:35:45:4f:9b:40:6e:5d:66:89:d5:
                    b1:bb:e3:e5:07:73:55:62:29:2e:2e:cf:d6:2f:0d:
                    e4:90:5f:fb:e8:c1:d3:8c:b9:d3:be:0c:94:37:39:
                    f4:34:3f:aa:e5:64:f1:c5:7d:ce:94:27:6e:19:3c:
                    18:dc:47:f3:1d:28:99:82:ce:36:8b:02:3c:a9:15:
                    e7:5b:e6:ba:a3:f9:0b:ca:e1:1e:c9:d6:e5:f6:92:
                    c5:8a:84:bd:da:85:66:30:ca:4f:26:45:8c:bc:34:
                    2e:00:c8:9d:38:0e:5e:9b:93:65:8e:fd:ca:ce:a0:
                    9f:97:ed:25:78:58:e8:22:ca:62:f2:65:16:1d:14:
                    0e:6e:9a:77:f7:2f:7e:46:d3:03:39:4f:a8:05:de:
                    07:fc:1d:1c:89:9d:5d:a8:31:77:4a:a3:0f:b9:70:
                    8b:59:d8:29:50:bb:c7:3e:e3:97:19:3d:0d:df:b2:
                    14:16:cc:89:6b:6f:f5:9a:03:81:0a:97:13:a4:13:
                    9b:cf:78:0a:3a:12:1d:99:cd:80:95:8d:61:b1:9d:
                    4d:14:86:0d:b5:0c:cb:dc:10:54:8b:76:ef:69:a1:
                    90:09:3b:68:d6:0b:ac:7a:04:dd:59:85:9d:f2:f0:
                    04:63:ff:f4:15:30:67:21:de:52:63:66:b1:3e:99:
                    f6:02:fb:a4:6f:fc:b4:5d:32:68:e2:c6:15:e3:86:
                    c3:b2:fe:af:f2:13:5a:c4:ff:7a:67:fc:c9:ab:31:
                    ca:8c:96:d1:ef:df:18:6d:17:10:a0:80:63:d0:8b:
                    52:19:31:de:52:94:c9:a2:f4:c6:43:50:a0:17:37:
                    7f:a3:43:fc:c1:02:1b:81:4e:36:8d:15:e8:64:cf:
                    1a:a4:72:57:40:c6:9b:d5:bc:b0:b8:14:d0:f9:62:
                    29:9a:27:83:5f:db:6a:74:69:9e:6d:ee:6f:48:c5:
                    4f:dd:6e:ab:bd:cc:ad:4c:48:d4:59:c1:dd:2a:23:
                    82:7c:0b:cd:c4:af:59:8a:b3:24:f8:70:90:a5:71:
                    ac:b4:e4:3e:9f:28:7e:11:9a:d4:cd:a9:81:46:22:
                    13:21:94:50:fa:f5:d1:0f:5f:be:58:f5:bf:8a:26:
                    70:bf:82:91:00:60:3b:9d:ee:c3:23:aa:64:f6:2d:
                    08:72:31
                Exponent: 65537 (0x10001)
        X509v3 extensions:
            X509v3 Basic Constraints: 
                CA:FALSE
            X509v3 Key Usage: 
                Digital Signature, Non Repudiation, Key Encipherment
            X509v3 Extended Key Usage: 
                OCSP Signing
    Signature Algorithm: sha256WithRSAEncryption
         1e:29:89:97:80:f2:f0:0f:cf:92:be:6c:28:36:7e:db:fb:05:
         f2:df:ae:cc:b5:c6:c1:30:db:f8:8d:bb:1d:35:9c:4e:a3:d4:
         91:25:99:ea:ea:c1:a4:62:d9:1f:b9:ed:7a:cc:63:82:51:72:
         99:31:76:0a:68:35:c3:ab:ef:59:78:68:ce:80:ff:0b:e9:7b:
         a5:9a:a8:fb:21:b8:f1:e9:3a:9f:01:7a:ed:8f:45:dc:9b:53:
         32:c0:2b:f2:46:6e:22:30:8c:51:6e:c2:8c:ca:e0:17:9b:07:
         5e:2a:6c:17:86:83:c7:45:2d:3c:db:71:82:7c:c7:3a:c1:f2:
         16:3f:01:e9:3d:84:fe:73:23:ff:9b:47:17:0f:a3:fe:a5:d7:
         d9:51:65:80:08:be:43:07:d3:18:3a:39:cf:d3:99:27:00:bf:
         b7:ba:e6:1e:6e:68:dd:92:d8:05:c9:e4:f9:66:70:a1:58:7a:
         66:ad:ca:e5:ad:cc:91:21:ea:c0:ca:ff:51:a3:1f:62:c0:5b:
         20:40:32:50:db:aa:e1:3e:3e:ee:2b:d3:97:8a:e4:fd:c3:6b:
         72:ed:7e:bb:49:9b:45:cf:d1:52:fb:6f:53:9d:c3:7f:0e:e1:
         6b:25:98:b6:cf:45:46:1b:eb:89:10:88:1e:92:4f:0c:f8:64:
         b6:5d:ca:70:c0:db:35:5b:a7:9d:07:b8:3c:74:5c:07:1b:7c:
         dd:67:de:be:37:21:d3:3f:55:62:1b:a0:be:38:d5:56:04:8e:
         87:1b:e8:d0:75:2e:0b:cb:bb:83:f5:de:5d:ee:36:46:1a:37:
         9e:33:79:0a:4d:7d:81:b4:9d:57:e9:57:33:e7:0e:c5:e0:00:
         a6:1a:10:08:6c:6a:16:12:43:76:a7:5a:5f:f6:97:71:11:40:
         da:d5:f2:41:8d:ce:65:f5:04:38:11:64:b5:c5:22:f6:de:d7:
         10:5f:b6:a1:8e:85:12:7f:81:6b:74:11:00:bf:e4:b6:43:1c:
         65:d2:8b:f4:73:38:e7:50:78:f3:b5:2c:a6:ae:30:84:7d:39:
         4a:1f:1c:a3:68:33:98:97:95:f0:8e:b0:b0:d5:79:cd:f6:43:
         37:23:3c:48:c2:37:fe:62:fb:30:ff:b0:5e:8f:f1:6e:18:3a:
         8e:d7:3c:c6:65:be:68:12:22:e5:a8:9f:a4:21:69:cb:df:d9:
         0e:43:e0:5a:91:4f:b8:8c:2a:a0:73:f8:20:e7:ac:72:05:ec:
         ce:0d:9b:a6:64:34:a7:3d:dd:5f:1d:25:c8:3c:31:7b:19:51:
         90:5b:4e:ff:da:99:fe:ce:15:47:ec:db:bf:68:3f:54:7c:63:
         a5:62:8c:06:58:80:88:ab
-----BEGIN CERTIFICATE-----
MIIGDzCCA/egAwIBAgIBATANBgkqhkiG9w0BAQsFADCBtzELMAkGA1UEBhMCVVMx
ETAPBgNVBAgMCE1hcnlsYW5kMRIwEAYDVQQHDAlCYWx0aW1vcmUxITAfBgNVBAoM
GEludGVybmV0IFdpZGdpdHMgUHR5IEx0ZDEjMCEGA1UECwwaU2VydmVyIFJlc2Vh
cmNoIERlcGFydG1lbnQxGDAWBgNVBAMMD0ludGVybWVkaWF0ZV9DQTEfMB0GCSqG
SIb3DQEJARYQdGVzdEBleGFtcGxlLmNvbTAeFw0yMzA1MDQxNzA1NTlaFw0yNDA1
MDMxNzA1NTlaMIGsMQswCQYDVQQGEwJVUzERMA8GA1UECAwITWFyeWxhbmQxEjAQ
BgNVBAcMCUJhbHRpbW9yZTEhMB8GA1UECgwYSW50ZXJuZXQgV2lkZ2l0cyBQdHkg
THRkMSMwIQYDVQQLDBpTZXJ2ZXIgUmVzZWFyY2ggRGVwYXJ0bWVudDENMAsGA1UE
AwwET0NTUDEfMB0GCSqGSIb3DQEJARYQdGVzdEBleGFtcGxlLmNvbTCCAiIwDQYJ
KoZIhvcNAQEBBQADggIPADCCAgoCggIBAL+zH/5ivnWFAubVactf96cqSW3q95UO
WOLUxKDrcrBeJ7fWle9jg0KpCwc5v89DPX3Un9Z3kGxLKx7XSbNAnCuA7butHljI
YmodNlawMrE1RU+bQG5dZonVsbvj5QdzVWIpLi7P1i8N5JBf++jB04y5074MlDc5
9DQ/quVk8cV9zpQnbhk8GNxH8x0omYLONosCPKkV51vmuqP5C8rhHsnW5faSxYqE
vdqFZjDKTyZFjLw0LgDInTgOXpuTZY79ys6gn5ftJXhY6CLKYvJlFh0UDm6ad/cv
fkbTAzlPqAXeB/wdHImdXagxd0qjD7lwi1nYKVC7xz7jlxk9Dd+yFBbMiWtv9ZoD
gQqXE6QTm894CjoSHZnNgJWNYbGdTRSGDbUMy9wQVIt272mhkAk7aNYLrHoE3VmF
nfLwBGP/9BUwZyHeUmNmsT6Z9gL7pG/8tF0yaOLGFeOGw7L+r/ITWsT/emf8yasx
yoyW0e/fGG0XEKCAY9CLUhkx3lKUyaL0xkNQoBc3f6ND/MECG4FONo0V6GTPGqRy
V0DGm9W8sLgU0PliKZong1/banRpnm3ub0jFT91uq73MrUxI1FnB3SojgnwLzcSv
WYqzJPhwkKVxrLTkPp8ofhGa1M2pgUYiEyGUUPr10Q9fvlj1v4omcL+CkQBgO53u
wyOqZPYtCHIxAgMBAAGjLzAtMAkGA1UdEwQCMAAwCwYDVR0PBAQDAgXgMBMGA1Ud
JQQMMAoGCCsGAQUFBwMJMA0GCSqGSIb3DQEBCwUAA4ICAQAeKYmXgPLwD8+Svmwo
Nn7b+wXy367MtcbBMNv4jbsdNZxOo9SRJZnq6sGkYtkfue16zGOCUXKZMXYKaDXD
q+9ZeGjOgP8L6Xulmqj7Ibjx6TqfAXrtj0Xcm1MywCvyRm4iMIxRbsKMyuAXmwde
KmwXhoPHRS0823GCfMc6wfIWPwHpPYT+cyP/m0cXD6P+pdfZUWWACL5DB9MYOjnP
05knAL+3uuYebmjdktgFyeT5ZnChWHpmrcrlrcyRIerAyv9Rox9iwFsgQDJQ26rh
Pj7uK9OXiuT9w2ty7X67SZtFz9FS+29TncN/DuFrJZi2z0VGG+uJEIgekk8M+GS2
XcpwwNs1W6edB7g8dFwHG3zdZ96+NyHTP1ViG6C+ONVWBI6HG+jQdS4Ly7uD9d5d
7jZGGjeeM3kKTX2BtJ1X6Vcz5w7F4ACmGhAIbGoWEkN2p1pf9pdxEUDa1fJBjc5l
9QQ4EWS1xSL23tcQX7ahjoUSf4FrdBEAv+S2Qxxl0ov0czjnUHjztSymrjCEfTlK
HxyjaDOYl5XwjrCw1XnN9kM3IzxIwjf+Yvsw/7Bej/FuGDqO1zzGZb5oEiLlqJ+k
IWnL39kOQ+BakU+4jCqgc/gg56xyBezODZumZDSnPd1fHSXIPDF7GVGQW07/2pn+
zhVH7Nu/aD9UfGOlYowGWICIqw==
-----END CERTIFICATE-----
