Certificate:
    Data:
        Version: 3 (0x2)
        Serial Number: 2 (0x2)
        Signature Algorithm: sha256WithRSAEncryption
        Issuer: C=US, ST=Maryland, L=Baltimore, O=Internet Widgits Pty Ltd, OU=Server Research Department, CN=Intermediate_CA/emailAddress=test@example.com
        Validity
            Not Before: May  4 17:05:59 2023 GMT
            Not After : May  3 17:05:59 2024 GMT
        Subject: C=US, ST=Maryland, L=Baltimore, O=Internet Widgits Pty Ltd, OU=Server Research Department, CN=Server/emailAddress=test@example.com
        Subject Public Key Info:
            Public Key Algorithm: rsaEncryption
                RSA Public-Key: (4096 bit)
                Modulus:
                    00:ce:8d:02:63:70:8f:da:4f:8d:a2:7c:27:9b:0c:
                    42:e7:5f:df:6e:c4:f7:30:b0:9c:8f:1f:f4:60:48:
                    4f:6d:dc:d5:ee:38:cf:3f:82:89:38:47:44:96:4a:
                    34:91:eb:5e:eb:3f:b9:e2:eb:6b:23:38:19:03:7f:
                    7c:e5:3c:f1:89:18:40:b7:d9:fb:2f:33:6a:70:2e:
                    b8:48:f0:a9:29:3f:d3:fa:f5:be:4d:a3:9b:58:cf:
                    79:a4:01:10:2b:70:fe:be:e6:8b:1d:53:1e:79:7d:
                    ef:c1:91:72:a1:25:02:12:81:9e:d4:17:66:fd:9f:
                    d4:e3:c9:38:3f:75:73:66:a3:a6:d4:01:63:78:2c:
                    1e:fe:9c:40:0e:20:b1:11:68:75:d8:b9:5a:79:81:
                    c4:b5:61:f1:17:50:63:a0:62:95:97:de:33:f7:e1:
                    eb:8a:5c:b7:c8:c9:dc:14:df:bc:61:49:35:bb:dc:
                    30:3f:35:4a:2b:f3:49:d7:6d:be:53:1e:d3:6e:32:
                    10:53:8e:49:12:db:67:18:16:84:b0:4f:d0:d5:c5:
                    29:a1:34:ca:00:d3:24:c5:f8:dd:9e:04:bb:e7:86:
                    da:2b:be:1e:99:c2:a7:5b:67:8a:22:06:fb:c0:7a:
                    78:3c:79:c1:7e:74:c7:63:e9:78:c6:2c:d0:31:f1:
                    1c:08:0b:f1:83:d2:62:43:ca:48:74:ee:d3:b6:05:
                    18:3d:af:31:38:02:05:32:4d:d2:a6:7c:1f:e5:60:
                    96:c0:08:22:f0:48:53:2e:cd:10:59:14:a6:8a:6e:
                    46:aa:2c:31:87:2b:13:a0:4f:54:83:32:ca:ea:b2:
                    75:8d:66:eb:a0:88:5b:56:30:8e:a8:1e:92:50:fc:
                    ba:cb:04:a3:ac:c9:1d:b2:20:2d:26:f7:ca:e3:7e:
                    44:8e:83:84:f2:2c:17:d6:28:4e:f8:c6:f8:44:3c:
                    ab:24:2a:5d:fe:a2:d7:a4:db:90:c3:07:65:be:90:
                    96:53:35:8b:01:f5:d5:40:52:ee:39:7b:53:52:04:
                    5a:0d:04:07:23:6f:56:b8:b8:ee:6b:35:49:20:d5:
                    e6:38:f3:d2:c7:82:79:e5:22:c6:c6:b8:5b:d6:e0:
                    c9:2b:e7:cc:b0:d1:9d:3e:cb:e9:78:85:90:6e:ba:
                    95:43:9c:e6:3d:45:3d:22:45:10:3d:bb:63:b5:36:
                    58:1a:54:38:c4:94:49:52:1d:03:56:5f:60:05:ab:
                    5a:3c:24:23:92:9a:1b:bb:ac:51:f5:6e:9c:f5:5f:
                    ed:4f:e1:f9:9c:c8:e1:fb:16:10:fa:95:03:e3:98:
                    23:eb:11:e1:9d:79:0c:fd:04:ba:27:4d:78:00:6b:
                    af:7e:95
                Exponent: 65537 (0x10001)
        X509v3 extensions:
            X509v3 Basic Constraints: critical
                CA:FALSE
            X509v3 Subject Key Identifier: 
                44:BC:9E:87:6A:BC:65:29:CC:67:E2:E1:F1:6B:75:57:1B:53:AC:82
            X509v3 Authority Key Identifier: 
                keyid:54:1D:FF:19:AC:CE:DA:A5:31:AE:04:14:D2:3E:55:B2:A0:7F:E7:A3
                DirName:/C=US/ST=Maryland/L=Baltimore/O=Internet Widgits Pty Ltd/OU=Server Research Department/CN=Root_CA/emailAddress=test@example.com
                serial:01

            X509v3 Key Usage: 
                Digital Signature, Non Repudiation, Key Encipherment, Key Agreement
            X509v3 Extended Key Usage: 
                TLS Web Server Authentication
            Authority Information Access: 
                OCSP - URI:http://ocsp:8080

    Signature Algorithm: sha256WithRSAEncryption
         19:bf:bc:7d:80:73:f9:e6:cf:1f:0f:1d:53:0c:87:be:b2:b9:
         f8:42:b7:f8:df:cb:75:91:aa:d3:1a:9d:e1:20:a1:4c:23:3c:
         45:5c:35:15:cc:e4:b0:7f:dc:cb:c6:1b:ed:89:f8:70:b8:eb:
         30:4f:5b:e5:d1:32:74:96:83:14:c4:d2:96:d1:a2:c1:3e:b7:
         d1:25:1e:0f:c7:92:86:bb:a5:ff:a4:44:be:17:a3:b3:86:17:
         3c:9f:4c:a1:5d:e9:97:b7:45:87:36:69:18:8d:d0:d2:00:46:
         cf:ea:a9:fb:62:68:d6:71:f4:56:37:15:73:9b:79:ca:ac:f5:
         df:2a:94:c1:64:e9:5e:0c:dc:cf:56:1b:59:d0:a4:25:0b:6e:
         cc:21:d2:88:ab:af:fc:34:79:ae:fa:2c:3b:c3:bc:0b:e0:6a:
         5c:86:e0:90:5f:ca:9a:fa:da:55:fb:ea:49:91:01:08:51:4f:
         02:0c:97:fd:bf:07:bf:83:79:4f:09:29:12:13:ff:1b:e9:75:
         d4:59:2e:74:09:93:a7:0d:1a:fd:f3:71:c4:99:f3:21:15:36:
         74:c6:e1:6c:44:96:cb:a9:ff:32:30:6a:c1:0e:73:e5:9e:e5:
         57:4f:1e:6a:2e:9e:b7:a6:f8:cf:69:c1:90:2d:5f:0e:f0:25:
         32:87:c5:04:65:24:77:12:5a:d1:dd:6b:f0:55:46:bb:4b:fa:
         1a:e3:cf:16:80:3b:21:e6:d4:d8:08:63:66:51:cb:6c:2b:ed:
         a4:80:b5:36:d3:82:c0:10:13:fc:55:68:c8:ca:bf:0c:c1:45:
         a0:4b:b3:63:a9:c9:36:46:a5:ce:50:de:f5:db:ef:79:6f:8d:
         2d:db:d9:42:12:ad:c8:0f:51:11:da:e6:30:50:09:bd:7f:d8:
         79:41:3c:cd:58:9a:92:94:8c:45:41:a8:81:eb:2c:25:14:0c:
         31:38:cb:4e:e9:33:58:e1:c8:f6:9d:ae:38:3d:7e:79:6b:75:
         17:73:e9:4f:4f:0e:de:ff:d5:44:34:90:5a:ca:f7:2e:36:5b:
         45:75:d9:63:29:c1:9d:3c:47:6d:49:ca:8a:f3:97:c1:e3:aa:
         95:58:2d:22:d0:b7:4b:d5:9d:fc:03:dc:1e:00:e6:29:c3:9d:
         41:b8:76:47:24:f5:3f:48:ac:df:17:12:c9:cd:d6:b8:da:44:
         8f:43:ae:ea:af:f5:87:4e:47:37:de:fb:d9:47:ff:32:2e:13:
         a6:f5:88:35:7b:0c:66:52:fd:d6:42:7f:2d:80:68:17:d3:83:
         e1:22:ee:3e:a9:34:79:8a:09:87:55:7d:b4:2e:9a:8d:37:68:
         90:b3:97:3d:cc:15:0c:96
-----BEGIN CERTIFICATE-----
MIIHRDCCBSygAwIBAgIBAjANBgkqhkiG9w0BAQsFADCBtzELMAkGA1UEBhMCVVMx
ETAPBgNVBAgMCE1hcnlsYW5kMRIwEAYDVQQHDAlCYWx0aW1vcmUxITAfBgNVBAoM
GEludGVybmV0IFdpZGdpdHMgUHR5IEx0ZDEjMCEGA1UECwwaU2VydmVyIFJlc2Vh
cmNoIERlcGFydG1lbnQxGDAWBgNVBAMMD0ludGVybWVkaWF0ZV9DQTEfMB0GCSqG
SIb3DQEJARYQdGVzdEBleGFtcGxlLmNvbTAeFw0yMzA1MDQxNzA1NTlaFw0yNDA1
MDMxNzA1NTlaMIGuMQswCQYDVQQGEwJVUzERMA8GA1UECAwITWFyeWxhbmQxEjAQ
BgNVBAcMCUJhbHRpbW9yZTEhMB8GA1UECgwYSW50ZXJuZXQgV2lkZ2l0cyBQdHkg
THRkMSMwIQYDVQQLDBpTZXJ2ZXIgUmVzZWFyY2ggRGVwYXJ0bWVudDEPMA0GA1UE
AwwGU2VydmVyMR8wHQYJKoZIhvcNAQkBFhB0ZXN0QGV4YW1wbGUuY29tMIICIjAN
BgkqhkiG9w0BAQEFAAOCAg8AMIICCgKCAgEAzo0CY3CP2k+NonwnmwxC51/fbsT3
MLCcjx/0YEhPbdzV7jjPP4KJOEdElko0kete6z+54utrIzgZA3985TzxiRhAt9n7
LzNqcC64SPCpKT/T+vW+TaObWM95pAEQK3D+vuaLHVMeeX3vwZFyoSUCEoGe1Bdm
/Z/U48k4P3VzZqOm1AFjeCwe/pxADiCxEWh12LlaeYHEtWHxF1BjoGKVl94z9+Hr
ily3yMncFN+8YUk1u9wwPzVKK/NJ122+Ux7TbjIQU45JEttnGBaEsE/Q1cUpoTTK
ANMkxfjdngS754baK74emcKnW2eKIgb7wHp4PHnBfnTHY+l4xizQMfEcCAvxg9Ji
Q8pIdO7TtgUYPa8xOAIFMk3Spnwf5WCWwAgi8EhTLs0QWRSmim5GqiwxhysToE9U
gzLK6rJ1jWbroIhbVjCOqB6SUPy6ywSjrMkdsiAtJvfK435EjoOE8iwX1ihO+Mb4
RDyrJCpd/qLXpNuQwwdlvpCWUzWLAfXVQFLuOXtTUgRaDQQHI29WuLjuazVJINXm
OPPSx4J55SLGxrhb1uDJK+fMsNGdPsvpeIWQbrqVQ5zmPUU9IkUQPbtjtTZYGlQ4
xJRJUh0DVl9gBataPCQjkpobu6xR9W6c9V/tT+H5nMjh+xYQ+pUD45gj6xHhnXkM
/QS6J014AGuvfpUCAwEAAaOCAWAwggFcMAwGA1UdEwEB/wQCMAAwHQYDVR0OBBYE
FES8nodqvGUpzGfi4fFrdVcbU6yCMIHcBgNVHSMEgdQwgdGAFFQd/xmsztqlMa4E
FNI+VbKgf+ejoYG1pIGyMIGvMQswCQYDVQQGEwJVUzERMA8GA1UECAwITWFyeWxh
bmQxEjAQBgNVBAcMCUJhbHRpbW9yZTEhMB8GA1UECgwYSW50ZXJuZXQgV2lkZ2l0
cyBQdHkgTHRkMSMwIQYDVQQLDBpTZXJ2ZXIgUmVzZWFyY2ggRGVwYXJ0bWVudDEQ
MA4GA1UEAwwHUm9vdF9DQTEfMB0GCSqGSIb3DQEJARYQdGVzdEBleGFtcGxlLmNv
bYIBATALBgNVHQ8EBAMCA+gwEwYDVR0lBAwwCgYIKwYBBQUHAwEwLAYIKwYBBQUH
AQEEIDAeMBwGCCsGAQUFBzABhhBodHRwOi8vb2NzcDo4MDgwMA0GCSqGSIb3DQEB
CwUAA4ICAQAZv7x9gHP55s8fDx1TDIe+srn4Qrf438t1karTGp3hIKFMIzxFXDUV
zOSwf9zLxhvtifhwuOswT1vl0TJ0loMUxNKW0aLBPrfRJR4Px5KGu6X/pES+F6Oz
hhc8n0yhXemXt0WHNmkYjdDSAEbP6qn7YmjWcfRWNxVzm3nKrPXfKpTBZOleDNzP
VhtZ0KQlC27MIdKIq6/8NHmu+iw7w7wL4GpchuCQX8qa+tpV++pJkQEIUU8CDJf9
vwe/g3lPCSkSE/8b6XXUWS50CZOnDRr983HEmfMhFTZ0xuFsRJbLqf8yMGrBDnPl
nuVXTx5qLp63pvjPacGQLV8O8CUyh8UEZSR3ElrR3WvwVUa7S/oa488WgDsh5tTY
CGNmUctsK+2kgLU204LAEBP8VWjIyr8MwUWgS7Njqck2RqXOUN712+95b40t29lC
Eq3ID1ER2uYwUAm9f9h5QTzNWJqSlIxFQaiB6ywlFAwxOMtO6TNY4cj2na44PX55
a3UXc+lPTw7e/9VENJBayvcuNltFddljKcGdPEdtScqK85fB46qVWC0i0LdL1Z38
A9weAOYpw51BuHZHJPU/SKzfFxLJzda42kSPQ67qr/WHTkc33vvZR/8yLhOm9Yg1
ewxmUv3WQn8tgGgX04PhIu4+qTR5igmHVX20LpqNN2iQs5c9zBUMlg==
-----END CERTIFICATE-----
