Certificate:
    Data:
        Version: 3 (0x2)
        Serial Number: 1 (0x1)
        Signature Algorithm: ecdsa-with-SHA256
        Issuer: C=US, ST=Maryland, L=Baltimore, O=Internet Widgits Pty Ltd, OU=Server Research Department, CN=Intermediate_CA/emailAddress=test@example.com
        Validity
            Not Before: May  4 17:06:00 2023 GMT
            Not After : May  3 17:06:00 2024 GMT
        Subject: C=US, ST=Maryland, L=Baltimore, O=Internet Widgits Pty Ltd, OU=Server Research Department, CN=OCSP/emailAddress=test@example.com
        Subject Public Key Info:
            Public Key Algorithm: id-ecPublicKey
                Public-Key: (256 bit)
                pub:
                    04:87:34:6a:65:89:32:27:10:83:bc:fc:7c:83:b8:
                    6f:af:6a:91:24:3b:26:7f:a8:a4:60:a0:e8:ae:de:
                    bb:8b:12:a7:18:e5:9b:b4:8f:0c:ef:05:67:f9:95:
                    6f:29:ce:ed:66:dd:b5:f3:59:ca:63:b0:33:10:8d:
                    21:92:d0:ab:08
                ASN1 OID: prime256v1
                NIST CURVE: P-256
        X509v3 extensions:
            X509v3 Basic Constraints: 
                CA:FALSE
            X509v3 Key Usage: 
                Digital Signature, Non Repudiation, Key Encipherment
            X509v3 Extended Key Usage: 
                OCSP Signing
    Signature Algorithm: ecdsa-with-SHA256
         30:45:02:20:06:c7:b3:2e:c5:89:dd:a9:62:7e:97:97:31:3a:
         ee:7f:7d:52:66:cc:3a:7e:35:0f:43:e2:45:3b:ee:6b:db:2c:
         02:21:00:bf:db:46:75:82:70:c1:4f:20:81:82:98:a0:7f:a6:
         e7:f9:b0:de:86:52:8f:c1:51:09:12:57:24:62:95:fe:7b
-----BEGIN CERTIFICATE-----
MIICgzCCAimgAwIBAgIBATAKBggqhkjOPQQDAjCBtzELMAkGA1UEBhMCVVMxETAP
BgNVBAgMCE1hcnlsYW5kMRIwEAYDVQQHDAlCYWx0aW1vcmUxITAfBgNVBAoMGElu
dGVybmV0IFdpZGdpdHMgUHR5IEx0ZDEjMCEGA1UECwwaU2VydmVyIFJlc2VhcmNo
IERlcGFydG1lbnQxGDAWBgNVBAMMD0ludGVybWVkaWF0ZV9DQTEfMB0GCSqGSIb3
DQEJARYQdGVzdEBleGFtcGxlLmNvbTAeFw0yMzA1MDQxNzA2MDBaFw0yNDA1MDMx
NzA2MDBaMIGsMQswCQYDVQQGEwJVUzERMA8GA1UECAwITWFyeWxhbmQxEjAQBgNV
BAcMCUJhbHRpbW9yZTEhMB8GA1UECgwYSW50ZXJuZXQgV2lkZ2l0cyBQdHkgTHRk
MSMwIQYDVQQLDBpTZXJ2ZXIgUmVzZWFyY2ggRGVwYXJ0bWVudDENMAsGA1UEAwwE
T0NTUDEfMB0GCSqGSIb3DQEJARYQdGVzdEBleGFtcGxlLmNvbTBZMBMGByqGSM49
AgEGCCqGSM49AwEHA0IABIc0amWJMicQg7z8fIO4b69qkSQ7Jn+opGCg6K7eu4sS
pxjlm7SPDO8FZ/mVbynO7WbdtfNZymOwMxCNIZLQqwijLzAtMAkGA1UdEwQCMAAw
CwYDVR0PBAQDAgXgMBMGA1UdJQQMMAoGCCsGAQUFBwMJMAoGCCqGSM49BAMCA0gA
MEUCIAbHsy7Fid2pYn6XlzE67n99UmbMOn41D0PiRTvua9ssAiEAv9tGdYJwwU8g
gYKYoH+m5/mw3oZSj8FRCRJXJGKV/ns=
-----END CERTIFICATE-----
