Certificate:
    Data:
        Version: 3 (0x2)
        Serial Number: 1 (0x1)
        Signature Algorithm: ecdsa-with-SHA256
        Issuer: C=US, ST=Maryland, L=Baltimore, O=Internet Widgits Pty Ltd, OU=Server Research Department, CN=Root_CA/emailAddress=test@example.com
        Validity
            Not Before: May  4 17:06:00 2023 GMT
            Not After : May  3 17:06:00 2024 GMT
        Subject: C=US, ST=Maryland, L=Baltimore, O=Internet Widgits Pty Ltd, OU=Server Research Department, CN=Intermediate_CA/emailAddress=test@example.com
        Subject Public Key Info:
            Public Key Algorithm: id-ecPublicKey
                Public-Key: (256 bit)
                pub:
                    04:e9:17:41:d1:18:46:9b:bc:5f:bc:ae:5c:ff:ef:
                    53:07:9b:22:4f:c0:3c:94:ba:6a:3a:cb:43:6c:97:
                    c5:e2:ea:5a:76:8c:71:8a:d1:35:43:cd:f5:ac:52:
                    ca:e1:37:e3:fb:3c:a9:d7:0e:c5:0a:e7:94:42:d8:
                    ff:c0:53:09:ef
                ASN1 OID: prime256v1
                NIST CURVE: P-256
        X509v3 extensions:
            X509v3 Basic Constraints: critical
                CA:TRUE
            X509v3 Subject Key Identifier: 
                DF:23:C6:D1:1D:24:1A:21:09:B6:68:3F:54:48:32:D5:3E:07:B0:53
            X509v3 Authority Key Identifier: 
                keyid:B0:B5:C1:DC:08:C5:40:6E:B7:44:4B:8B:52:82:4E:9C:77:58:29:0F
                DirName:/C=US/ST=Maryland/L=Baltimore/O=Internet Widgits Pty Ltd/OU=Server Research Department/CN=Root_CA/emailAddress=test@example.com
                serial:5F:05:71:46:4B:F1:04:4D:B0:8F:E8:55:6F:BB:50:28:4B:51:A8:BB

            X509v3 Key Usage: critical
                Certificate Sign, CRL Sign
            Authority Information Access: 
                OCSP - URI:http://ocsp:8080

    Signature Algorithm: ecdsa-with-SHA256
         30:45:02:21:00:f7:89:5b:79:b8:64:20:64:60:f1:0c:27:7a:
         85:95:8f:c9:ff:12:0b:0c:2f:70:70:d5:55:c7:81:28:d4:39:
         63:02:20:13:dc:4c:8d:ac:ad:88:69:33:c4:d5:ce:b9:2d:a3:
         31:b0:a8:95:81:45:45:8c:df:00:ee:f2:bd:97:e0:4b:e2
-----BEGIN CERTIFICATE-----
MIIDvTCCA2OgAwIBAgIBATAKBggqhkjOPQQDAjCBrzELMAkGA1UEBhMCVVMxETAP
BgNVBAgMCE1hcnlsYW5kMRIwEAYDVQQHDAlCYWx0aW1vcmUxITAfBgNVBAoMGElu
dGVybmV0IFdpZGdpdHMgUHR5IEx0ZDEjMCEGA1UECwwaU2VydmVyIFJlc2VhcmNo
IERlcGFydG1lbnQxEDAOBgNVBAMMB1Jvb3RfQ0ExHzAdBgkqhkiG9w0BCQEWEHRl
c3RAZXhhbXBsZS5jb20wHhcNMjMwNTA0MTcwNjAwWhcNMjQwNTAzMTcwNjAwWjCB
tzELMAkGA1UEBhMCVVMxETAPBgNVBAgMCE1hcnlsYW5kMRIwEAYDVQQHDAlCYWx0
aW1vcmUxITAfBgNVBAoMGEludGVybmV0IFdpZGdpdHMgUHR5IEx0ZDEjMCEGA1UE
CwwaU2VydmVyIFJlc2VhcmNoIERlcGFydG1lbnQxGDAWBgNVBAMMD0ludGVybWVk
aWF0ZV9DQTEfMB0GCSqGSIb3DQEJARYQdGVzdEBleGFtcGxlLmNvbTBZMBMGByqG
SM49AgEGCCqGSM49AwEHA0IABOkXQdEYRpu8X7yuXP/vUwebIk/APJS6ajrLQ2yX
xeLqWnaMcYrRNUPN9axSyuE34/s8qdcOxQrnlELY/8BTCe+jggFkMIIBYDAPBgNV
HRMBAf8EBTADAQH/MB0GA1UdDgQWBBTfI8bRHSQaIQm2aD9USDLVPgewUzCB7wYD
VR0jBIHnMIHkgBSwtcHcCMVAbrdES4tSgk6cd1gpD6GBtaSBsjCBrzELMAkGA1UE
BhMCVVMxETAPBgNVBAgMCE1hcnlsYW5kMRIwEAYDVQQHDAlCYWx0aW1vcmUxITAf
BgNVBAoMGEludGVybmV0IFdpZGdpdHMgUHR5IEx0ZDEjMCEGA1UECwwaU2VydmVy
IFJlc2VhcmNoIERlcGFydG1lbnQxEDAOBgNVBAMMB1Jvb3RfQ0ExHzAdBgkqhkiG
9w0BCQEWEHRlc3RAZXhhbXBsZS5jb22CFF8FcUZL8QRNsI/oVW+7UChLUai7MA4G
A1UdDwEB/wQEAwIBBjAsBggrBgEFBQcBAQQgMB4wHAYIKwYBBQUHMAGGEGh0dHA6
Ly9vY3NwOjgwODAwCgYIKoZIzj0EAwIDSAAwRQIhAPeJW3m4ZCBkYPEMJ3qFlY/J
/xILDC9wcNVVx4Eo1DljAiAT3EyNrK2IaTPE1c65LaMxsKiVgUVFjN8A7vK9l+BL
4g==
-----END CERTIFICATE-----
