Certificate:
    Data:
        Version: 3 (0x2)
        Serial Number: 2 (0x2)
        Signature Algorithm: ED25519
        Issuer: C=US, ST=Maryland, L=Baltimore, O=Internet Widgits Pty Ltd, OU=Server Research Department, CN=Intermediate_CA/emailAddress=test@example.com
        Validity
            Not Before: May  4 17:06:00 2023 GMT
            Not After : May  3 17:06:00 2024 GMT
        Subject: C=US, ST=Maryland, L=Baltimore, O=Internet Widgits Pty Ltd, OU=Server Research Department, CN=Server/emailAddress=test@example.com
        Subject Public Key Info:
            Public Key Algorithm: ED25519
                ED25519 Public-Key:
                pub:
                    f3:a0:ff:fa:58:cf:05:19:7b:71:da:38:6a:7f:33:
                    76:02:03:0d:a7:68:db:45:e1:07:f8:d3:10:2d:96:
                    8e:06
        X509v3 extensions:
            X509v3 Basic Constraints: critical
                CA:FALSE
            X509v3 Subject Key Identifier: 
                9A:C2:6B:41:83:9A:36:75:24:33:68:6B:CC:B4:D3:F2:01:A0:81:07
            X509v3 Authority Key Identifier: 
                keyid:47:D3:55:01:8C:82:01:D0:DC:96:8D:D3:2D:90:9F:6D:42:A1:3F:80
                DirName:/C=US/ST=Maryland/L=Baltimore/O=Internet Widgits Pty Ltd/OU=Server Research Department/CN=Root_CA/emailAddress=test@example.com
                serial:01

            X509v3 Key Usage: 
                Digital Signature, Non Repudiation, Key Encipherment, Key Agreement
            X509v3 Extended Key Usage: 
                TLS Web Server Authentication
            Authority Information Access: 
                OCSP - URI:http://ocsp:8080

    Signature Algorithm: ED25519
         82:89:fb:70:4d:5f:2c:e8:01:d1:e2:99:3d:e5:32:09:7c:14:
         29:3b:8a:88:a6:ff:67:3c:2e:9b:48:44:59:9e:c0:ee:e4:8b:
         c7:06:69:45:ff:ef:07:29:bb:73:ef:91:ce:63:7a:dd:d1:79:
         a6:a4:73:fb:3a:89:2d:8a:48:0d
-----BEGIN CERTIFICATE-----
MIIDeDCCAyqgAwIBAgIBAjAFBgMrZXAwgbcxCzAJBgNVBAYTAlVTMREwDwYDVQQI
DAhNYXJ5bGFuZDESMBAGA1UEBwwJQmFsdGltb3JlMSEwHwYDVQQKDBhJbnRlcm5l
dCBXaWRnaXRzIFB0eSBMdGQxIzAhBgNVBAsMGlNlcnZlciBSZXNlYXJjaCBEZXBh
cnRtZW50MRgwFgYDVQQDDA9JbnRlcm1lZGlhdGVfQ0ExHzAdBgkqhkiG9w0BCQEW
EHRlc3RAZXhhbXBsZS5jb20wHhcNMjMwNTA0MTcwNjAwWhcNMjQwNTAzMTcwNjAw
WjCBrjELMAkGA1UEBhMCVVMxETAPBgNVBAgMCE1hcnlsYW5kMRIwEAYDVQQHDAlC
YWx0aW1vcmUxITAfBgNVBAoMGEludGVybmV0IFdpZGdpdHMgUHR5IEx0ZDEjMCEG
A1UECwwaU2VydmVyIFJlc2VhcmNoIERlcGFydG1lbnQxDzANBgNVBAMMBlNlcnZl
cjEfMB0GCSqGSIb3DQEJARYQdGVzdEBleGFtcGxlLmNvbTAqMAUGAytlcAMhAPOg
//pYzwUZe3HaOGp/M3YCAw2naNtF4Qf40xAtlo4Go4IBYDCCAVwwDAYDVR0TAQH/
BAIwADAdBgNVHQ4EFgQUmsJrQYOaNnUkM2hrzLTT8gGggQcwgdwGA1UdIwSB1DCB
0YAUR9NVAYyCAdDclo3TLZCfbUKhP4ChgbWkgbIwga8xCzAJBgNVBAYTAlVTMREw
DwYDVQQIDAhNYXJ5bGFuZDESMBAGA1UEBwwJQmFsdGltb3JlMSEwHwYDVQQKDBhJ
bnRlcm5ldCBXaWRnaXRzIFB0eSBMdGQxIzAhBgNVBAsMGlNlcnZlciBSZXNlYXJj
aCBEZXBhcnRtZW50MRAwDgYDVQQDDAdSb290X0NBMR8wHQYJKoZIhvcNAQkBFhB0
ZXN0QGV4YW1wbGUuY29tggEBMAsGA1UdDwQEAwID6DATBgNVHSUEDDAKBggrBgEF
BQcDATAsBggrBgEFBQcBAQQgMB4wHAYIKwYBBQUHMAGGEGh0dHA6Ly9vY3NwOjgw
ODAwBQYDK2VwA0EAgon7cE1fLOgB0eKZPeUyCXwUKTuKiKb/Zzwum0hEWZ7A7uSL
xwZpRf/vBym7c++RzmN63dF5pqRz+zqJLYpIDQ==
-----END CERTIFICATE-----
