Certificate:
    Data:
        Version: 3 (0x2)
        Serial Number: 3 (0x3)
        Signature Algorithm: sha256WithRSAEncryption
        Issuer: C=US, ST=Maryland, L=Baltimore, O=Internet Widgits Pty Ltd, OU=Server Research Department, CN=Intermediate_CA/emailAddress=test@example.com
        Validity
            Not Before: May  7 18:15:56 2023 GMT
            Not After : May  6 18:15:56 2024 GMT
        Subject: C=US, ST=Maryland, L=Baltimore, O=Internet Widgits Pty Ltd, OU=Server Research Department, CN=User/emailAddress=test@example.com
        Subject Public Key Info:
            Public Key Algorithm: rsaEncryption
                RSA Public-Key: (4096 bit)
                Modulus:
                    00:e7:2c:a7:85:9b:1f:de:a6:66:23:39:78:5c:1e:
                    24:c7:cd:1e:07:f2:9e:d7:f3:c6:23:33:41:79:8e:
                    78:3b:a3:89:e5:61:af:45:9e:f8:92:f6:f9:b1:05:
                    e7:22:f1:ef:3d:a2:ad:61:20:ea:b2:05:3a:53:79:
                    a9:f3:0b:47:e0:c0:ad:8b:3e:df:eb:5f:8a:7e:52:
                    a7:47:ae:e5:c8:0c:00:7a:b3:9b:f5:0d:f7:a4:29:
                    ae:ea:94:09:04:c2:6d:6a:45:07:f8:81:d3:04:0c:
                    ae:69:8f:50:cf:57:58:9e:b0:fd:4c:3a:01:b1:55:
                    31:6d:3a:36:9f:12:6e:28:f2:eb:a6:68:b1:76:84:
                    27:4a:a2:72:17:5a:88:8c:75:8b:c0:6f:4c:e7:7e:
                    9d:05:f3:b5:27:96:26:a7:7c:71:9e:08:fd:c1:b4:
                    28:31:3c:6b:17:15:b7:45:04:0c:1a:bb:cb:2d:cc:
                    94:f0:52:8f:f7:25:c2:7d:98:5e:14:5a:fa:3d:a2:
                    44:26:c7:3d:4b:47:a4:81:94:46:d7:25:82:ab:7d:
                    b6:e6:cd:bd:01:d7:43:56:23:ad:84:72:5b:94:20:
                    18:c3:22:f7:db:35:64:ce:9d:34:73:d4:3b:48:60:
                    5c:ac:57:f4:d5:8c:20:4c:7a:78:fc:22:5a:87:18:
                    7d:e5:0f:aa:c0:01:ba:7e:3c:a4:25:69:5d:d1:a2:
                    2a:ce:67:52:98:cc:4e:12:64:ce:07:af:72:6a:63:
                    4f:99:a6:0d:63:aa:4d:63:14:16:f6:0a:c0:ba:32:
                    e0:80:d7:fa:f6:02:a7:b4:7b:33:b6:8c:ad:05:9a:
                    2d:96:ac:a4:03:d8:ea:a6:43:8c:a0:39:1f:db:23:
                    8c:f0:71:3f:f0:99:e9:30:59:a0:c4:0e:81:7d:13:
                    f1:c9:ed:35:80:a5:75:5e:05:76:a0:40:9e:c2:e4:
                    df:44:7a:80:b0:60:ff:c6:57:03:85:67:04:49:0b:
                    40:08:14:62:56:80:d3:11:66:7c:cd:a5:43:9c:d6:
                    fe:c7:83:35:b3:53:42:4e:e6:36:b0:28:a5:45:e1:
                    fc:66:ed:e8:eb:9f:a9:c6:a6:fc:83:a3:e8:0e:c6:
                    67:bd:fe:f7:cc:68:eb:c4:17:38:c2:8b:b4:20:b9:
                    3c:0f:f7:ec:55:67:78:04:fd:52:9e:cd:ac:20:a7:
                    77:41:7b:68:55:a7:48:1f:a9:a5:e5:a6:49:62:7c:
                    ac:23:8f:97:8d:30:28:22:30:03:2e:25:17:f9:12:
                    f0:c7:56:52:4b:23:2f:fc:8f:c6:8c:1d:f7:64:58:
                    7b:3e:a1:a0:f3:cf:4c:8e:a2:d2:78:20:a7:58:aa:
                    90:15:a7
                Exponent: 65537 (0x10001)
        X509v3 extensions:
            X509v3 Basic Constraints: critical
                CA:FALSE
            X509v3 Subject Key Identifier: 
                6C:BA:93:C4:0B:21:EA:2F:9B:55:C0:37:6D:BF:FC:5B:48:9A:75:9D
            X509v3 Authority Key Identifier: 
                keyid:EB:30:66:EC:DD:5A:41:75:49:D7:78:55:85:58:61:51:C0:CB:A8:56
                DirName:/C=US/ST=Maryland/L=Baltimore/O=Internet Widgits Pty Ltd/OU=Server Research Department/CN=Root_CA/emailAddress=test@example.com
                serial:01

            X509v3 Key Usage: 
                Digital Signature, Non Repudiation, Key Encipherment
            X509v3 Extended Key Usage: 
                TLS Web Client Authentication
    Signature Algorithm: sha256WithRSAEncryption
         81:d1:e5:f4:e9:43:68:09:fd:ea:11:08:b6:e8:26:39:2e:71:
         51:50:e8:51:43:bd:6f:b9:15:6c:a9:44:16:60:32:b0:a6:6a:
         55:1a:9f:89:78:04:3b:1e:f3:d8:02:f2:28:89:60:6b:c5:20:
         20:f2:c9:33:aa:a4:66:4f:5b:7a:96:76:a1:90:2c:da:3a:a0:
         26:d1:ad:ae:1b:3f:2d:0e:b8:a8:42:a3:db:26:79:71:67:eb:
         f0:66:3f:c9:0c:7e:73:c6:67:86:32:47:54:56:19:f0:c2:ce:
         0c:ba:f1:9b:57:92:be:74:c0:a5:d0:f3:aa:bd:69:d9:e4:ae:
         fe:5a:3d:d8:28:5b:c1:fb:2f:a7:18:ef:84:57:37:8a:2a:c6:
         78:e6:a1:cb:d4:bc:6a:fd:fb:b5:78:10:8d:82:c6:e5:db:c3:
         44:d5:95:2b:c3:94:4c:1d:58:ec:8c:e3:9b:bd:c7:c9:6e:e7:
         76:41:18:12:ec:6f:a4:17:96:bf:88:57:37:0d:5f:f1:67:53:
         14:4b:1e:d6:1e:42:98:b3:6b:7c:c1:3d:c0:d6:e6:2f:e8:2f:
         07:de:3e:2c:c3:c9:93:e7:7f:53:f9:82:fa:51:5f:d7:97:d5:
         c0:d2:ef:c5:d2:db:b8:cd:ef:f4:8c:96:24:22:ac:61:01:6f:
         dd:a8:ef:42:74:ee:2b:99:4d:d9:83:ce:33:46:de:13:88:f7:
         7a:c6:e6:e3:0f:94:73:9e:1e:a6:a4:af:2a:c2:5e:4f:68:78:
         ea:63:ee:a4:82:33:e6:3f:09:b3:6e:ed:38:c9:95:66:39:c0:
         f8:ca:6a:6e:80:98:8b:39:63:60:05:02:0e:5d:99:0f:af:dd:
         f2:ae:84:2c:21:c5:94:ee:35:4d:ba:47:e9:37:33:20:23:cf:
         ae:e1:bc:43:e2:e9:4a:ab:ae:6d:c1:bc:b9:c3:cd:8d:10:30:
         cd:97:5a:55:be:e4:80:5b:a5:0d:ca:d6:a7:17:c1:74:99:22:
         fb:fb:43:9e:21:e7:f1:31:08:14:da:7b:da:f4:d3:cc:b3:ef:
         1f:ed:fc:05:05:5e:08:cb:ad:99:5a:48:27:21:ea:33:ff:68:
         6c:e9:c6:f3:e3:e6:a2:41:03:e0:a7:6b:90:15:81:91:f3:33:
         ec:a5:fc:36:90:6d:1a:74:2a:19:24:8a:f2:b1:98:90:b5:85:
         f4:69:4b:5a:55:38:1e:cd:9d:d5:5b:9f:d5:25:9d:ec:33:06:
         17:1f:cf:2e:81:8c:81:56:b2:94:08:03:70:45:4b:1b:39:cd:
         18:e1:0c:be:f7:0c:da:46:78:ef:59:79:22:b9:1c:f3:d0:04:
         c0:90:38:ec:ae:94:eb:df
-----BEGIN CERTIFICATE-----
MIIHFDCCBPygAwIBAgIBAzANBgkqhkiG9w0BAQsFADCBtzELMAkGA1UEBhMCVVMx
ETAPBgNVBAgMCE1hcnlsYW5kMRIwEAYDVQQHDAlCYWx0aW1vcmUxITAfBgNVBAoM
GEludGVybmV0IFdpZGdpdHMgUHR5IEx0ZDEjMCEGA1UECwwaU2VydmVyIFJlc2Vh
cmNoIERlcGFydG1lbnQxGDAWBgNVBAMMD0ludGVybWVkaWF0ZV9DQTEfMB0GCSqG
SIb3DQEJARYQdGVzdEBleGFtcGxlLmNvbTAeFw0yMzA1MDcxODE1NTZaFw0yNDA1
MDYxODE1NTZaMIGsMQswCQYDVQQGEwJVUzERMA8GA1UECAwITWFyeWxhbmQxEjAQ
BgNVBAcMCUJhbHRpbW9yZTEhMB8GA1UECgwYSW50ZXJuZXQgV2lkZ2l0cyBQdHkg
THRkMSMwIQYDVQQLDBpTZXJ2ZXIgUmVzZWFyY2ggRGVwYXJ0bWVudDENMAsGA1UE
AwwEVXNlcjEfMB0GCSqGSIb3DQEJARYQdGVzdEBleGFtcGxlLmNvbTCCAiIwDQYJ
KoZIhvcNAQEBBQADggIPADCCAgoCggIBAOcsp4WbH96mZiM5eFweJMfNHgfyntfz
xiMzQXmOeDujieVhr0We+JL2+bEF5yLx7z2irWEg6rIFOlN5qfMLR+DArYs+3+tf
in5Sp0eu5cgMAHqzm/UN96QpruqUCQTCbWpFB/iB0wQMrmmPUM9XWJ6w/Uw6AbFV
MW06Np8Sbijy66ZosXaEJ0qichdaiIx1i8BvTOd+nQXztSeWJqd8cZ4I/cG0KDE8
axcVt0UEDBq7yy3MlPBSj/clwn2YXhRa+j2iRCbHPUtHpIGURtclgqt9tubNvQHX
Q1YjrYRyW5QgGMMi99s1ZM6dNHPUO0hgXKxX9NWMIEx6ePwiWocYfeUPqsABun48
pCVpXdGiKs5nUpjMThJkzgevcmpjT5mmDWOqTWMUFvYKwLoy4IDX+vYCp7R7M7aM
rQWaLZaspAPY6qZDjKA5H9sjjPBxP/CZ6TBZoMQOgX0T8cntNYCldV4FdqBAnsLk
30R6gLBg/8ZXA4VnBEkLQAgUYlaA0xFmfM2lQ5zW/seDNbNTQk7mNrAopUXh/Gbt
6Oufqcam/IOj6A7GZ73+98xo68QXOMKLtCC5PA/37FVneAT9Up7NrCCnd0F7aFWn
SB+ppeWmSWJ8rCOPl40wKCIwAy4lF/kS8MdWUksjL/yPxowd92RYez6hoPPPTI6i
0nggp1iqkBWnAgMBAAGjggEyMIIBLjAMBgNVHRMBAf8EAjAAMB0GA1UdDgQWBBRs
upPECyHqL5tVwDdtv/xbSJp1nTCB3AYDVR0jBIHUMIHRgBTrMGbs3VpBdUnXeFWF
WGFRwMuoVqGBtaSBsjCBrzELMAkGA1UEBhMCVVMxETAPBgNVBAgMCE1hcnlsYW5k
MRIwEAYDVQQHDAlCYWx0aW1vcmUxITAfBgNVBAoMGEludGVybmV0IFdpZGdpdHMg
UHR5IEx0ZDEjMCEGA1UECwwaU2VydmVyIFJlc2VhcmNoIERlcGFydG1lbnQxEDAO
BgNVBAMMB1Jvb3RfQ0ExHzAdBgkqhkiG9w0BCQEWEHRlc3RAZXhhbXBsZS5jb22C
AQEwCwYDVR0PBAQDAgXgMBMGA1UdJQQMMAoGCCsGAQUFBwMCMA0GCSqGSIb3DQEB
CwUAA4ICAQCB0eX06UNoCf3qEQi26CY5LnFRUOhRQ71vuRVsqUQWYDKwpmpVGp+J
eAQ7HvPYAvIoiWBrxSAg8skzqqRmT1t6lnahkCzaOqAm0a2uGz8tDrioQqPbJnlx
Z+vwZj/JDH5zxmeGMkdUVhnwws4MuvGbV5K+dMCl0POqvWnZ5K7+Wj3YKFvB+y+n
GO+EVzeKKsZ45qHL1Lxq/fu1eBCNgsbl28NE1ZUrw5RMHVjsjOObvcfJbud2QRgS
7G+kF5a/iFc3DV/xZ1MUSx7WHkKYs2t8wT3A1uYv6C8H3j4sw8mT539T+YL6UV/X
l9XA0u/F0tu4ze/0jJYkIqxhAW/dqO9CdO4rmU3Zg84zRt4TiPd6xubjD5Rznh6m
pK8qwl5PaHjqY+6kgjPmPwmzbu04yZVmOcD4ympugJiLOWNgBQIOXZkPr93yroQs
IcWU7jVNukfpNzMgI8+u4bxD4ulKq65twby5w82NEDDNl1pVvuSAW6UNytanF8F0
mSL7+0OeIefxMQgU2nva9NPMs+8f7fwFBV4Iy62ZWkgnIeoz/2hs6cbz4+aiQQPg
p2uQFYGR8zPspfw2kG0adCoZJIrysZiQtYX0aUtaVTgezZ3VW5/VJZ3sMwYXH88u
gYyBVrKUCANwRUsbOc0Y4Qy+9wzaRnjvWXkiuRzz0ATAkDjsrpTr3w==
-----END CERTIFICATE-----
