Certificate:
    Data:
        Version: 3 (0x2)
        Serial Number: 1 (0x1)
        Signature Algorithm: falcon512
        Issuer: C=US, ST=Maryland, L=Baltimore, O=Internet Widgits Pty Ltd, OU=Server Research Department, CN=Root_CA/emailAddress=test@example.com
        Validity
            Not Before: May  4 17:06:00 2023 GMT
            Not After : May  3 17:06:00 2024 GMT
        Subject: C=US, ST=Maryland, L=Baltimore, O=Internet Widgits Pty Ltd, OU=Server Research Department, CN=Intermediate_CA/emailAddress=test@example.com
        Subject Public Key Info:
            Public Key Algorithm: falcon512
                falcon512 Public-Key:
                pub:
                    09:19:7e:66:02:32:49:63:11:0c:ef:24:1c:14:3c:
                    16:a9:ac:c1:a2:c9:69:95:de:39:88:8b:e9:6a:3c:
                    01:0d:aa:ea:98:c5:04:66:f3:63:7b:d4:68:3e:94:
                    98:19:52:60:c0:33:e1:ba:d6:9e:ad:e9:5e:06:59:
                    d2:c7:8b:7b:1d:6d:1b:17:2e:2a:f7:45:80:0f:db:
                    21:d4:4b:bb:f9:54:11:d0:19:92:41:2a:76:f0:f7:
                    62:af:1f:22:bd:62:ac:23:08:3a:14:90:82:29:4b:
                    94:32:c1:a3:74:bb:2a:87:9e:89:0e:66:80:8a:6d:
                    9b:91:ca:6a:0c:d9:96:81:42:cf:93:dc:01:9d:04:
                    b4:b1:47:11:62:85:7c:18:81:fb:f9:a8:bd:83:38:
                    5d:c1:02:47:cf:30:bd:87:03:da:23:f1:5f:65:e8:
                    e2:80:89:51:86:95:86:42:67:48:2e:77:14:d1:0a:
                    8e:26:6b:4a:0d:4e:b5:9f:8b:44:b6:a1:5c:46:7d:
                    5a:2f:70:2a:eb:25:99:18:9b:22:a2:5d:c1:d1:8d:
                    13:a4:89:3f:24:e0:57:f0:7a:4c:9d:e3:57:da:ae:
                    22:f4:c3:a7:54:e8:2f:5a:26:5a:95:60:68:ff:3c:
                    ee:a8:08:5e:e9:1f:0e:42:0b:73:a8:4e:1c:98:8a:
                    36:17:96:54:4d:2c:38:fa:89:e1:9e:00:be:89:39:
                    c1:f9:9d:bc:ac:34:3b:ea:13:48:82:a1:20:50:6b:
                    57:87:8d:66:be:31:29:b9:c0:d8:2c:36:ba:d8:3f:
                    5e:9e:1c:25:a5:a7:fd:a0:d2:5d:7c:57:a3:3c:e4:
                    91:ad:84:3a:b2:e0:ce:b0:5f:cc:c5:f7:0c:24:8a:
                    01:2a:88:87:a0:08:10:b3:71:4f:d2:4f:8b:8d:a3:
                    a5:39:a0:8e:6e:db:69:5d:20:c2:6b:88:41:bd:e8:
                    82:09:e5:86:b4:89:d9:cd:32:1f:e6:0c:2c:10:c0:
                    e8:c5:c6:46:88:9d:b7:29:0a:a0:43:66:72:06:c2:
                    b5:13:79:18:f6:b6:10:1a:e8:13:4e:1c:a9:52:d4:
                    ac:e2:4e:05:b7:40:e3:05:25:1d:ec:aa:e8:2c:66:
                    03:47:a6:e2:54:58:89:72:2b:0d:64:f5:44:06:a9:
                    96:81:ec:eb:05:09:1d:3e:80:d2:83:aa:07:82:a8:
                    11:7c:17:53:ea:9f:b2:d2:30:15:e2:86:d8:97:fa:
                    82:55:93:63:71:53:e6:28:b8:21:20:92:11:31:cc:
                    2a:da:6c:1d:8d:28:a1:a1:0f:c5:1f:84:42:e5:77:
                    0d:46:5d:a9:d8:a4:58:36:21:df:48:e6:16:c7:0e:
                    cc:b9:07:18:e8:13:88:ad:de:ac:aa:d4:a7:93:9a:
                    6b:4c:5e:6b:7a:d3:e8:09:9d:f6:60:29:5a:26:24:
                    10:9e:e7:66:1d:12:a7:01:08:37:02:ed:93:d4:6f:
                    82:10:0a:fe:ce:a8:30:62:0d:43:72:2c:68:88:9c:
                    f6:94:39:a8:86:1c:e5:78:d0:65:12:d3:80:36:71:
                    a9:14:d9:2a:0b:69:7a:82:0b:d4:8e:21:bd:f2:91:
                    c8:4c:6c:96:40:1f:52:33:5f:9f:89:1c:90:96:5d:
                    64:ab:52:31:38:e2:f0:9c:07:bd:90:a4:22:16:19:
                    65:74:a1:36:15:49:e1:af:1d:12:b4:71:b6:ec:84:
                    40:d0:09:6a:90:6b:0c:b6:78:4e:9b:9c:23:dc:8b:
                    2d:d1:32:bd:53:e3:99:e4:73:b1:7f:2f:83:35:4a:
                    a9:a4:c2:5b:d1:40:f5:02:36:26:65:01:4e:5c:7a:
                    18:e5:6f:f6:b0:81:84:f3:3b:53:c9:50:26:41:e7:
                    33:15:fb:16:ec:7a:28:e2:dc:c4:83:38:1f:a9:73:
                    a4:e7:ad:9a:c6:36:e0:85:42:0f:fa:10:da:3c:97:
                    81:59:26:df:19:ae:11:ca:bb:09:cb:f8:4c:dd:b6:
                    65:b9:56:a3:b5:ce:d9:97:55:ed:69:35:ad:ad:1d:
                    06:8e:04:9c:21:be:0c:c6:6c:89:45:19:53:52:34:
                    8a:f0:e2:68:cc:9d:19:5f:04:d4:eb:69:32:74:c3:
                    01:6c:93:71:74:ea:07:66:0b:68:2c:37:1e:bc:b6:
                    8a:a1:63:40:f8:66:6b:b5:65:c8:62:92:73:44:45:
                    59:c4:15:11:98:f6:c3:5a:4c:09:89:20:35:79:21:
                    32:2d:52:0f:97:a4:e1:54:99:50:4d:c4:b8:d3:29:
                    7d:c6:97:a5:85:18:b0:b7:f0:2e:e6:54:e0:15:39:
                    4c:44:93:9a:d0:cd:38:4c:2d:5a:34:92:fb:20:f2:
                    0f:47:62:66:da:29:38:b5:a6:a7:ee:43
        X509v3 extensions:
            X509v3 Basic Constraints: critical
                CA:TRUE
            X509v3 Subject Key Identifier: 
                C3:3E:97:0B:00:83:F0:31:98:BB:C6:9B:C1:35:85:42:79:3E:18:6B
            X509v3 Authority Key Identifier: 
                keyid:F6:89:0D:0C:68:3D:CA:E5:5B:02:C8:B2:0F:37:56:D5:AA:8A:5C:D6
                DirName:/C=US/ST=Maryland/L=Baltimore/O=Internet Widgits Pty Ltd/OU=Server Research Department/CN=Root_CA/emailAddress=test@example.com
                serial:7E:C8:AE:AD:7F:71:84:62:14:BC:33:E9:2B:53:C2:29:72:A3:B0:64

            X509v3 Key Usage: critical
                Certificate Sign, CRL Sign
            Authority Information Access: 
                OCSP - URI:http://ocsp:8080

    Signature Algorithm: falcon512
         39:b6:ae:35:b3:20:b2:1a:bb:ff:be:fa:83:06:ea:d3:4a:e7:
         4f:ef:fd:26:ea:1e:64:82:d3:e5:11:0f:d2:b1:a2:1d:3e:69:
         de:37:62:7c:c9:c1:5a:5a:fd:0f:5e:18:30:92:54:58:ba:4f:
         5a:de:bf:92:80:c4:c7:5b:74:8a:94:8e:33:2f:5d:23:61:b3:
         7d:94:ee:49:32:c7:2e:44:46:21:c0:97:e0:7c:31:b9:ae:9f:
         96:5a:74:08:f7:67:0c:7a:b3:05:63:a5:b7:a5:ea:99:58:ad:
         66:1a:bd:db:7d:49:9d:09:df:e5:ad:ce:2b:88:c2:24:bf:28:
         07:f5:c7:b6:f1:d3:df:a4:c9:db:6f:de:d9:be:6a:5a:83:d4:
         d3:bc:84:50:fe:b0:5d:73:9a:cc:9a:33:ca:fd:d4:a8:ad:6c:
         08:b4:23:8c:4f:4e:3d:07:d9:65:ae:b9:a9:44:6a:b4:45:d9:
         38:56:f3:3e:d2:13:4b:17:a6:27:1c:3a:48:8d:06:4b:9d:46:
         79:65:5a:79:83:3d:e8:84:01:c9:9d:cc:6e:7c:9a:1f:fb:f4:
         a6:a0:8a:5c:86:db:5b:ae:2a:f9:8b:e3:34:93:c5:09:c4:ba:
         89:0a:29:5b:cc:3b:96:4b:dc:09:0b:27:f6:77:a9:4d:66:37:
         45:be:cd:c7:3a:ec:3c:d1:ad:1d:68:f2:79:92:6c:61:91:d6:
         d1:0b:36:b0:fa:4a:15:b2:c4:c3:e8:ba:44:00:c5:f6:de:6c:
         2d:03:ef:ae:b0:e6:90:e7:fd:f2:e7:a2:6c:5e:1e:47:03:49:
         d9:7b:e5:33:99:6d:d8:ae:db:98:e5:63:e9:b3:82:3d:cb:51:
         75:bc:45:34:fe:26:3d:71:68:99:6f:bd:b1:58:d4:9c:a6:b2:
         e7:a1:6a:5b:15:cd:af:5c:a9:a6:0a:60:ed:ff:be:77:e9:91:
         11:80:ff:71:b4:83:ed:e2:3b:99:94:9b:9b:19:e2:6e:b8:d0:
         ef:f4:3d:5d:64:56:c3:91:05:ab:45:86:22:9f:04:70:9c:79:
         7a:56:b9:dd:ba:3e:34:09:9b:de:f9:a1:2b:d6:57:76:84:4f:
         f7:16:5b:a2:02:c3:38:1a:b8:7e:67:a0:e6:3e:b9:1c:2a:07:
         d2:ce:30:9f:34:65:1f:a7:20:e8:99:57:68:b3:b4:45:f9:3e:
         83:cd:64:1c:6c:6a:66:e8:0a:8c:de:55:40:5d:09:39:df:c4:
         69:d2:77:db:b7:0a:56:da:96:6c:d1:3f:64:23:06:f9:f7:1c:
         08:6d:a7:a3:f5:27:8a:11:96:1a:36:8d:11:41:95:7e:56:5c:
         5e:37:7a:8a:29:e6:80:52:1d:cb:94:b8:42:1b:2e:9c:05:c2:
         83:3e:cf:45:e5:9d:51:19:34:81:6a:87:d1:57:84:9c:b2:b7:
         2e:4c:f3:44:f9:92:95:37:00:ed:db:75:eb:8c:87:6b:25:42:
         90:cf:d4:de:c4:fc:bf:2f:1a:2f:f3:ca:6d:6c:18:59:87:d3:
         73:2f:e5:7b:8e:37:62:ea:37:ac:a0:a5:62:a5:5f:dc:52:01:
         02:36:68:a2:9b:8d:f7:e5:35:b4:16:5b:41:36:78:fb:1b:e2:
         af:33:36:7d:f5:0d:d0:de:bf:ea:46:b0:58:34:ca:6d:4f:f2:
         d9:45:8e:6b:60:d6:cc:79:98:ba:16:cf:cd:7f:f9:46:64:6a:
         15:42:5f:95:80
-----BEGIN CERTIFICATE-----
MIIJNzCCBpigAwIBAgIBATAHBgUrzg8DBjCBrzELMAkGA1UEBhMCVVMxETAPBgNV
BAgMCE1hcnlsYW5kMRIwEAYDVQQHDAlCYWx0aW1vcmUxITAfBgNVBAoMGEludGVy
bmV0IFdpZGdpdHMgUHR5IEx0ZDEjMCEGA1UECwwaU2VydmVyIFJlc2VhcmNoIERl
cGFydG1lbnQxEDAOBgNVBAMMB1Jvb3RfQ0ExHzAdBgkqhkiG9w0BCQEWEHRlc3RA
ZXhhbXBsZS5jb20wHhcNMjMwNTA0MTcwNjAwWhcNMjQwNTAzMTcwNjAwWjCBtzEL
MAkGA1UEBhMCVVMxETAPBgNVBAgMCE1hcnlsYW5kMRIwEAYDVQQHDAlCYWx0aW1v
cmUxITAfBgNVBAoMGEludGVybmV0IFdpZGdpdHMgUHR5IEx0ZDEjMCEGA1UECwwa
U2VydmVyIFJlc2VhcmNoIERlcGFydG1lbnQxGDAWBgNVBAMMD0ludGVybWVkaWF0
ZV9DQTEfMB0GCSqGSIb3DQEJARYQdGVzdEBleGFtcGxlLmNvbTCCA48wBwYFK84P
AwYDggOCAAkZfmYCMkljEQzvJBwUPBaprMGiyWmV3jmIi+lqPAENquqYxQRm82N7
1Gg+lJgZUmDAM+G61p6t6V4GWdLHi3sdbRsXLir3RYAP2yHUS7v5VBHQGZJBKnbw
92KvHyK9YqwjCDoUkIIpS5QywaN0uyqHnokOZoCKbZuRymoM2ZaBQs+T3AGdBLSx
RxFihXwYgfv5qL2DOF3BAkfPML2HA9oj8V9l6OKAiVGGlYZCZ0gudxTRCo4ma0oN
TrWfi0S2oVxGfVovcCrrJZkYmyKiXcHRjROkiT8k4Ffwekyd41fariL0w6dU6C9a
JlqVYGj/PO6oCF7pHw5CC3OoThyYijYXllRNLDj6ieGeAL6JOcH5nbysNDvqE0iC
oSBQa1eHjWa+MSm5wNgsNrrYP16eHCWlp/2g0l18V6M85JGthDqy4M6wX8zF9wwk
igEqiIegCBCzcU/ST4uNo6U5oI5u22ldIMJriEG96IIJ5Ya0idnNMh/mDCwQwOjF
xkaInbcpCqBDZnIGwrUTeRj2thAa6BNOHKlS1KziTgW3QOMFJR3squgsZgNHpuJU
WIlyKw1k9UQGqZaB7OsFCR0+gNKDqgeCqBF8F1Pqn7LSMBXihtiX+oJVk2NxU+Yo
uCEgkhExzCrabB2NKKGhD8UfhELldw1GXanYpFg2Id9I5hbHDsy5BxjoE4it3qyq
1KeTmmtMXmt60+gJnfZgKVomJBCe52YdEqcBCDcC7ZPUb4IQCv7OqDBiDUNyLGiI
nPaUOaiGHOV40GUS04A2cakU2SoLaXqCC9SOIb3ykchMbJZAH1IzX5+JHJCWXWSr
UjE44vCcB72QpCIWGWV0oTYVSeGvHRK0cbbshEDQCWqQawy2eE6bnCPciy3RMr1T
45nkc7F/L4M1SqmkwlvRQPUCNiZlAU5cehjlb/awgYTzO1PJUCZB5zMV+xbseiji
3MSDOB+pc6TnrZrGNuCFQg/6ENo8l4FZJt8ZrhHKuwnL+EzdtmW5VqO1ztmXVe1p
Na2tHQaOBJwhvgzGbIlFGVNSNIrw4mjMnRlfBNTraTJ0wwFsk3F06gdmC2gsNx68
toqhY0D4Zmu1ZchiknNERVnEFRGY9sNaTAmJIDV5ITItUg+XpOFUmVBNxLjTKX3G
l6WFGLC38C7mVOAVOUxEk5rQzThMLVo0kvsg8g9HYmbaKTi1pqfuQ6OCAWQwggFg
MA8GA1UdEwEB/wQFMAMBAf8wHQYDVR0OBBYEFMM+lwsAg/AxmLvGm8E1hUJ5Phhr
MIHvBgNVHSMEgecwgeSAFPaJDQxoPcrlWwLIsg83VtWqilzWoYG1pIGyMIGvMQsw
CQYDVQQGEwJVUzERMA8GA1UECAwITWFyeWxhbmQxEjAQBgNVBAcMCUJhbHRpbW9y
ZTEhMB8GA1UECgwYSW50ZXJuZXQgV2lkZ2l0cyBQdHkgTHRkMSMwIQYDVQQLDBpT
ZXJ2ZXIgUmVzZWFyY2ggRGVwYXJ0bWVudDEQMA4GA1UEAwwHUm9vdF9DQTEfMB0G
CSqGSIb3DQEJARYQdGVzdEBleGFtcGxlLmNvbYIUfsiurX9xhGIUvDPpK1PCKXKj
sGQwDgYDVR0PAQH/BAQDAgEGMCwGCCsGAQUFBwEBBCAwHjAcBggrBgEFBQcwAYYQ
aHR0cDovL29jc3A6ODA4MDAHBgUrzg8DBgOCAo4AObauNbMgshq7/776gwbq00rn
T+/9JuoeZILT5REP0rGiHT5p3jdifMnBWlr9D14YMJJUWLpPWt6/koDEx1t0ipSO
My9dI2GzfZTuSTLHLkRGIcCX4Hwxua6fllp0CPdnDHqzBWOlt6XqmVitZhq9231J
nQnf5a3OK4jCJL8oB/XHtvHT36TJ22/e2b5qWoPU07yEUP6wXXOazJozyv3UqK1s
CLQjjE9OPQfZZa65qURqtEXZOFbzPtITSxemJxw6SI0GS51GeWVaeYM96IQByZ3M
bnyaH/v0pqCKXIbbW64q+YvjNJPFCcS6iQopW8w7lkvcCQsn9nepTWY3Rb7Nxzrs
PNGtHWjyeZJsYZHW0Qs2sPpKFbLEw+i6RADF9t5sLQPvrrDmkOf98ueibF4eRwNJ
2XvlM5lt2K7bmOVj6bOCPctRdbxFNP4mPXFomW+9sVjUnKay56FqWxXNr1yppgpg
7f++d+mREYD/cbSD7eI7mZSbmxnibrjQ7/Q9XWRWw5EFq0WGIp8EcJx5ela53bo+
NAmb3vmhK9ZXdoRP9xZbogLDOBq4fmeg5j65HCoH0s4wnzRlH6cg6JlXaLO0Rfk+
g81kHGxqZugKjN5VQF0JOd/EadJ327cKVtqWbNE/ZCMG+fccCG2no/UnihGWGjaN
EUGVflZcXjd6iinmgFIdy5S4QhsunAXCgz7PReWdURk0gWqH0VeEnLK3LkzzRPmS
lTcA7dt164yHayVCkM/U3sT8vy8aL/PKbWwYWYfTcy/le443Yuo3rKClYqVf3FIB
AjZoopuN9+U1tBZbQTZ4+xvirzM2ffUN0N6/6kawWDTKbU/y2UWOa2DWzHmYuhbP
zX/5RmRqFUJflYA=
-----END CERTIFICATE-----
