Certificate:
    Data:
        Version: 3 (0x2)
        Serial Number: 2 (0x2)
        Signature Algorithm: ecdsa-with-SHA256
        Issuer: C=US, ST=Maryland, L=Baltimore, O=Internet Widgits Pty Ltd, OU=Server Research Department, CN=Intermediate_CA/emailAddress=test@example.com
        Validity
            Not Before: May  7 18:15:56 2023 GMT
            Not After : May  6 18:15:56 2024 GMT
        Subject: C=US, ST=Maryland, L=Baltimore, O=Internet Widgits Pty Ltd, OU=Server Research Department, CN=Server/emailAddress=test@example.com
        Subject Public Key Info:
            Public Key Algorithm: id-ecPublicKey
                Public-Key: (256 bit)
                pub:
                    04:0e:8d:6d:e4:81:81:2a:b3:f2:cf:aa:d0:88:9e:
                    35:e0:5b:e7:03:fc:d6:cb:7e:48:33:ab:0d:45:e8:
                    d1:1d:11:20:15:49:b8:2b:ec:74:96:6a:f2:13:2e:
                    cd:e7:ac:85:2e:81:41:e1:d9:db:38:b3:d8:e5:9f:
                    7c:99:bc:19:81
                ASN1 OID: prime256v1
                NIST CURVE: P-256
        X509v3 extensions:
            X509v3 Basic Constraints: critical
                CA:FALSE
            X509v3 Subject Key Identifier: 
                15:80:C8:6E:5B:82:3E:7D:B1:5D:07:99:48:ED:E5:BC:28:55:01:B6
            X509v3 Authority Key Identifier: 
                keyid:01:53:52:CB:2D:E8:83:CE:E3:16:ED:F2:BF:2D:38:34:9D:55:49:08
                DirName:/C=US/ST=Maryland/L=Baltimore/O=Internet Widgits Pty Ltd/OU=Server Research Department/CN=Root_CA/emailAddress=test@example.com
                serial:01

            X509v3 Key Usage: 
                Digital Signature, Non Repudiation, Key Encipherment, Key Agreement
            X509v3 Extended Key Usage: 
                TLS Web Server Authentication
    Signature Algorithm: ecdsa-with-SHA256
         30:46:02:21:00:fb:b1:04:e5:73:3e:aa:8a:b1:a8:ea:ea:fd:
         c9:83:5a:81:9a:a2:bf:68:fd:a9:0d:87:6d:e2:b4:2a:11:ba:
         ea:02:21:00:94:36:dc:ec:a5:3e:d3:bb:72:fa:24:94:68:f3:
         f6:aa:86:ab:05:1b:37:cd:ae:b1:ef:16:93:ea:ce:2f:3e:73
-----BEGIN CERTIFICATE-----
MIIDizCCAzCgAwIBAgIBAjAKBggqhkjOPQQDAjCBtzELMAkGA1UEBhMCVVMxETAP
BgNVBAgMCE1hcnlsYW5kMRIwEAYDVQQHDAlCYWx0aW1vcmUxITAfBgNVBAoMGElu
dGVybmV0IFdpZGdpdHMgUHR5IEx0ZDEjMCEGA1UECwwaU2VydmVyIFJlc2VhcmNo
IERlcGFydG1lbnQxGDAWBgNVBAMMD0ludGVybWVkaWF0ZV9DQTEfMB0GCSqGSIb3
DQEJARYQdGVzdEBleGFtcGxlLmNvbTAeFw0yMzA1MDcxODE1NTZaFw0yNDA1MDYx
ODE1NTZaMIGuMQswCQYDVQQGEwJVUzERMA8GA1UECAwITWFyeWxhbmQxEjAQBgNV
BAcMCUJhbHRpbW9yZTEhMB8GA1UECgwYSW50ZXJuZXQgV2lkZ2l0cyBQdHkgTHRk
MSMwIQYDVQQLDBpTZXJ2ZXIgUmVzZWFyY2ggRGVwYXJ0bWVudDEPMA0GA1UEAwwG
U2VydmVyMR8wHQYJKoZIhvcNAQkBFhB0ZXN0QGV4YW1wbGUuY29tMFkwEwYHKoZI
zj0CAQYIKoZIzj0DAQcDQgAEDo1t5IGBKrPyz6rQiJ414FvnA/zWy35IM6sNRejR
HREgFUm4K+x0lmryEy7N56yFLoFB4dnbOLPY5Z98mbwZgaOCATIwggEuMAwGA1Ud
EwEB/wQCMAAwHQYDVR0OBBYEFBWAyG5bgj59sV0HmUjt5bwoVQG2MIHcBgNVHSME
gdQwgdGAFAFTUsst6IPO4xbt8r8tODSdVUkIoYG1pIGyMIGvMQswCQYDVQQGEwJV
UzERMA8GA1UECAwITWFyeWxhbmQxEjAQBgNVBAcMCUJhbHRpbW9yZTEhMB8GA1UE
CgwYSW50ZXJuZXQgV2lkZ2l0cyBQdHkgTHRkMSMwIQYDVQQLDBpTZXJ2ZXIgUmVz
ZWFyY2ggRGVwYXJ0bWVudDEQMA4GA1UEAwwHUm9vdF9DQTEfMB0GCSqGSIb3DQEJ
ARYQdGVzdEBleGFtcGxlLmNvbYIBATALBgNVHQ8EBAMCA+gwEwYDVR0lBAwwCgYI
KwYBBQUHAwEwCgYIKoZIzj0EAwIDSQAwRgIhAPuxBOVzPqqKsajq6v3Jg1qBmqK/
aP2pDYdt4rQqEbrqAiEAlDbc7KU+07ty+iSUaPP2qoarBRs3za6x7xaT6s4vPnM=
-----END CERTIFICATE-----
