Certificate:
    Data:
        Version: 3 (0x2)
        Serial Number: 3 (0x3)
        Signature Algorithm: ecdsa-with-SHA256
        Issuer: C=US, ST=Maryland, L=Baltimore, O=Internet Widgits Pty Ltd, OU=Server Research Department, CN=Intermediate_CA/emailAddress=test@example.com
        Validity
            Not Before: May  7 18:15:56 2023 GMT
            Not After : May  6 18:15:56 2024 GMT
        Subject: C=US, ST=Maryland, L=Baltimore, O=Internet Widgits Pty Ltd, OU=Server Research Department, CN=User/emailAddress=test@example.com
        Subject Public Key Info:
            Public Key Algorithm: id-ecPublicKey
                Public-Key: (256 bit)
                pub:
                    04:36:09:c9:03:be:05:4c:3a:59:42:90:44:d9:b6:
                    f4:7e:8a:e2:cd:e2:ed:fd:3d:b1:8f:57:fb:59:d8:
                    85:b9:22:ea:8c:97:b8:6a:96:f8:88:0d:91:91:10:
                    c6:b4:45:08:ea:5f:3e:0a:7e:7d:e6:d7:00:4f:6b:
                    1f:33:a5:46:e8
                ASN1 OID: prime256v1
                NIST CURVE: P-256
        X509v3 extensions:
            X509v3 Basic Constraints: critical
                CA:FALSE
            X509v3 Subject Key Identifier: 
                D9:94:B3:AC:6C:61:A6:5D:93:1E:EF:8E:BD:94:7E:14:4C:1C:4A:BF
            X509v3 Authority Key Identifier: 
                keyid:01:53:52:CB:2D:E8:83:CE:E3:16:ED:F2:BF:2D:38:34:9D:55:49:08
                DirName:/C=US/ST=Maryland/L=Baltimore/O=Internet Widgits Pty Ltd/OU=Server Research Department/CN=Root_CA/emailAddress=test@example.com
                serial:01

            X509v3 Key Usage: 
                Digital Signature, Non Repudiation, Key Encipherment
            X509v3 Extended Key Usage: 
                TLS Web Client Authentication
    Signature Algorithm: ecdsa-with-SHA256
         30:45:02:20:0f:ab:07:72:3b:02:7b:62:38:f3:95:f3:6e:1f:
         5b:04:04:7a:c6:db:04:3c:54:37:62:ee:ba:5d:13:70:7f:c0:
         02:21:00:a2:11:7f:86:30:87:8f:4c:cc:5e:15:b4:7b:f4:82:
         5b:f4:2e:27:ef:d4:e8:38:f2:e5:c8:cb:a0:a7:d2:33:c4
-----BEGIN CERTIFICATE-----
MIIDiDCCAy6gAwIBAgIBAzAKBggqhkjOPQQDAjCBtzELMAkGA1UEBhMCVVMxETAP
BgNVBAgMCE1hcnlsYW5kMRIwEAYDVQQHDAlCYWx0aW1vcmUxITAfBgNVBAoMGElu
dGVybmV0IFdpZGdpdHMgUHR5IEx0ZDEjMCEGA1UECwwaU2VydmVyIFJlc2VhcmNo
IERlcGFydG1lbnQxGDAWBgNVBAMMD0ludGVybWVkaWF0ZV9DQTEfMB0GCSqGSIb3
DQEJARYQdGVzdEBleGFtcGxlLmNvbTAeFw0yMzA1MDcxODE1NTZaFw0yNDA1MDYx
ODE1NTZaMIGsMQswCQYDVQQGEwJVUzERMA8GA1UECAwITWFyeWxhbmQxEjAQBgNV
BAcMCUJhbHRpbW9yZTEhMB8GA1UECgwYSW50ZXJuZXQgV2lkZ2l0cyBQdHkgTHRk
MSMwIQYDVQQLDBpTZXJ2ZXIgUmVzZWFyY2ggRGVwYXJ0bWVudDENMAsGA1UEAwwE
VXNlcjEfMB0GCSqGSIb3DQEJARYQdGVzdEBleGFtcGxlLmNvbTBZMBMGByqGSM49
AgEGCCqGSM49AwEHA0IABDYJyQO+BUw6WUKQRNm29H6K4s3i7f09sY9X+1nYhbki
6oyXuGqW+IgNkZEQxrRFCOpfPgp+febXAE9rHzOlRuijggEyMIIBLjAMBgNVHRMB
Af8EAjAAMB0GA1UdDgQWBBTZlLOsbGGmXZMe7469lH4UTBxKvzCB3AYDVR0jBIHU
MIHRgBQBU1LLLeiDzuMW7fK/LTg0nVVJCKGBtaSBsjCBrzELMAkGA1UEBhMCVVMx
ETAPBgNVBAgMCE1hcnlsYW5kMRIwEAYDVQQHDAlCYWx0aW1vcmUxITAfBgNVBAoM
GEludGVybmV0IFdpZGdpdHMgUHR5IEx0ZDEjMCEGA1UECwwaU2VydmVyIFJlc2Vh
cmNoIERlcGFydG1lbnQxEDAOBgNVBAMMB1Jvb3RfQ0ExHzAdBgkqhkiG9w0BCQEW
EHRlc3RAZXhhbXBsZS5jb22CAQEwCwYDVR0PBAQDAgXgMBMGA1UdJQQMMAoGCCsG
AQUFBwMCMAoGCCqGSM49BAMCA0gAMEUCIA+rB3I7AntiOPOV824fWwQEesbbBDxU
N2Luul0TcH/AAiEAohF/hjCHj0zMXhW0e/SCW/QuJ+/U6Djy5cjLoKfSM8Q=
-----END CERTIFICATE-----
