Certificate:
    Data:
        Version: 3 (0x2)
        Serial Number: 3 (0x3)
        Signature Algorithm: sha256WithRSAEncryption
        Issuer: C=US, ST=Maryland, L=Baltimore, O=Internet Widgits Pty Ltd, OU=Server Research Department, CN=Intermediate_CA/emailAddress=test@example.com
        Validity
            Not Before: May  4 17:06:00 2023 GMT
            Not After : May  3 17:06:00 2024 GMT
        Subject: C=US, ST=Maryland, L=Baltimore, O=Internet Widgits Pty Ltd, OU=Server Research Department, CN=User/emailAddress=test@example.com
        Subject Public Key Info:
            Public Key Algorithm: rsaEncryption
                RSA Public-Key: (4096 bit)
                Modulus:
                    00:b4:f5:53:1a:47:f6:ab:0e:70:fa:64:2e:69:62:
                    ff:d2:87:70:97:0b:85:44:b6:4a:af:d6:8b:26:c6:
                    34:c1:d2:c9:4c:85:60:b2:11:01:35:66:1f:8f:54:
                    fc:6c:0b:b1:d0:94:1a:ce:20:e0:83:fd:21:2d:7d:
                    30:d4:bf:67:3d:c0:14:e6:43:a6:b0:b3:26:93:3c:
                    10:f1:c1:ba:6a:b9:1c:45:37:16:6c:5d:0b:87:93:
                    0a:79:d9:21:c7:d2:17:c7:af:9d:97:f2:28:d1:63:
                    1f:54:d9:00:f8:af:c0:16:b5:96:26:f3:5a:c3:c7:
                    54:ce:26:f6:1e:6a:b8:9c:88:bb:d0:cd:d9:e5:65:
                    0d:58:d7:b2:83:88:63:ba:76:ec:53:b4:3a:37:d9:
                    de:da:19:f1:2f:36:45:00:56:fe:9c:f6:34:75:46:
                    3e:d2:53:cc:93:ce:9d:39:08:92:3d:ad:13:44:33:
                    92:3c:9c:18:09:07:ae:1b:7e:fd:e5:56:23:50:11:
                    9c:d2:fb:a5:1b:0b:44:0c:43:10:5f:cf:fd:b6:89:
                    43:7c:51:f0:07:7c:bb:22:4f:af:53:0b:b3:2a:6b:
                    1f:22:36:cc:6e:54:b3:11:65:e8:af:cb:34:b3:38:
                    72:db:3c:48:16:97:09:eb:4b:2e:8b:dd:80:84:43:
                    e7:20:c8:38:8d:5f:3b:9a:80:2d:56:fc:10:c3:96:
                    6c:c6:63:20:3f:bd:c9:c6:26:73:9f:7f:e7:2f:95:
                    5f:c3:10:26:f2:15:f7:36:25:40:5b:65:40:8b:2d:
                    08:0c:ef:5b:29:06:85:ad:e8:78:da:23:62:26:0a:
                    07:40:10:46:1b:92:cf:02:2a:ed:2d:39:e2:a9:2c:
                    39:6a:3e:07:5d:9d:83:ef:88:5f:70:81:8a:d7:03:
                    ea:59:ec:a4:92:80:01:e6:98:d5:5f:2b:ca:b9:7d:
                    d0:48:5a:4e:61:a2:5d:3e:3b:49:c7:b8:72:93:2b:
                    65:e7:01:ae:f0:11:4c:2e:f6:df:37:bb:c8:63:51:
                    76:42:e4:e9:c4:dd:a6:c2:4a:d3:37:ac:0b:2e:f4:
                    17:e3:3b:22:62:e9:93:58:a7:38:6a:5c:94:9c:f6:
                    5f:42:66:d8:29:4e:cf:ce:18:59:b2:50:50:22:e8:
                    d0:4e:98:b2:67:dd:a2:a8:b1:7c:d9:50:e3:f9:6d:
                    3c:18:98:9c:b8:48:13:f4:c5:8c:0c:e4:25:a2:75:
                    f5:d4:53:76:26:52:70:97:48:60:49:b6:39:98:b2:
                    10:13:82:25:df:a2:a6:a1:88:cf:84:55:16:16:16:
                    eb:4f:08:0a:57:60:7b:2a:6f:18:f2:dc:ef:5e:e9:
                    bd:a1:bb
                Exponent: 65537 (0x10001)
        X509v3 extensions:
            X509v3 Basic Constraints: critical
                CA:FALSE
            X509v3 Subject Key Identifier: 
                59:92:5D:1C:7D:60:A3:9D:6F:D5:37:14:09:BB:83:79:9E:46:32:09
            X509v3 Authority Key Identifier: 
                keyid:54:1D:FF:19:AC:CE:DA:A5:31:AE:04:14:D2:3E:55:B2:A0:7F:E7:A3
                DirName:/C=US/ST=Maryland/L=Baltimore/O=Internet Widgits Pty Ltd/OU=Server Research Department/CN=Root_CA/emailAddress=test@example.com
                serial:01

            X509v3 Key Usage: 
                Digital Signature, Non Repudiation, Key Encipherment
            X509v3 Extended Key Usage: 
                TLS Web Client Authentication
            Authority Information Access: 
                OCSP - URI:http://ocsp:8080

    Signature Algorithm: sha256WithRSAEncryption
         08:02:5b:81:90:3a:61:d0:4b:37:3c:50:d2:72:97:44:57:66:
         22:0e:0f:e4:35:c6:3a:89:07:c4:18:61:22:b3:6b:7c:ad:bc:
         df:0b:a3:fa:01:5e:2d:94:90:f4:b2:5e:d7:04:ca:2a:40:a4:
         e5:e9:21:5d:41:9c:22:63:0f:1f:15:85:74:1b:12:29:bf:16:
         ee:0e:ed:78:91:b6:da:3a:bc:26:5d:63:64:82:3d:c9:83:84:
         2f:8a:b1:b2:d3:02:a2:5c:8e:c0:9e:97:c0:3e:25:f0:c3:78:
         08:4c:7e:08:9c:19:28:a5:d4:32:39:10:96:d1:6b:14:e9:7a:
         ee:a0:20:f5:fd:18:78:95:06:4d:a7:71:49:90:ab:6a:69:c0:
         6c:6c:50:fc:ea:91:11:15:48:6d:bc:67:03:31:a9:bd:33:cf:
         5e:b2:95:ca:4b:62:3f:9e:7d:c2:6b:fb:0c:dc:23:79:62:c5:
         e1:1d:64:b5:7f:92:58:96:00:07:42:a7:aa:10:fd:78:c5:f8:
         58:15:e2:22:09:fb:a9:e7:c1:12:9c:fe:46:b3:1a:64:04:bd:
         13:2e:88:0a:0a:16:56:82:95:f7:03:cf:90:fd:04:77:04:8e:
         60:6a:f5:b0:e7:20:b2:47:b8:ad:ac:50:75:b0:45:e3:2b:61:
         7c:b3:b4:4d:16:c8:1c:b0:ba:6f:9e:fe:96:6f:d0:1a:98:9a:
         0c:ee:52:92:6b:50:17:f7:b1:4e:ca:95:1d:9f:b2:6c:eb:5f:
         49:d8:22:5c:a9:f8:de:e0:0e:85:15:d4:9a:b6:0f:f8:8c:e2:
         35:9f:25:00:b2:76:f3:f2:39:37:0a:12:d6:96:4a:47:23:3e:
         c7:fe:cd:53:e2:ad:00:1d:a8:29:8c:59:6f:16:9c:7e:94:0a:
         ac:41:a5:0e:18:86:49:71:8b:82:8c:5e:dc:b5:05:19:79:a6:
         4c:e8:b0:a8:35:94:03:57:07:01:75:5e:b2:ef:9c:d4:84:87:
         83:1c:c4:ea:75:a9:24:f9:86:82:8b:9d:a8:08:d9:30:11:b4:
         3b:da:89:36:cc:8b:37:40:d8:e3:44:26:35:8b:74:54:d6:38:
         38:c8:3b:a6:fa:66:68:a0:2b:ae:29:03:26:7e:26:d5:9a:d4:
         9b:84:0f:bc:a3:59:43:36:ad:37:fa:67:5a:60:3e:59:0d:9f:
         e0:25:68:a5:1a:54:03:46:ed:fc:93:b1:cb:c2:2b:ef:bb:f9:
         a5:3d:61:82:76:4a:c0:31:05:5b:2e:32:0b:57:e1:74:2a:1e:
         8f:ea:07:c7:00:53:0b:a6:74:d5:6b:f4:52:e8:99:49:37:90:
         10:f0:34:fe:de:77:58:dd
-----BEGIN CERTIFICATE-----
MIIHQjCCBSqgAwIBAgIBAzANBgkqhkiG9w0BAQsFADCBtzELMAkGA1UEBhMCVVMx
ETAPBgNVBAgMCE1hcnlsYW5kMRIwEAYDVQQHDAlCYWx0aW1vcmUxITAfBgNVBAoM
GEludGVybmV0IFdpZGdpdHMgUHR5IEx0ZDEjMCEGA1UECwwaU2VydmVyIFJlc2Vh
cmNoIERlcGFydG1lbnQxGDAWBgNVBAMMD0ludGVybWVkaWF0ZV9DQTEfMB0GCSqG
SIb3DQEJARYQdGVzdEBleGFtcGxlLmNvbTAeFw0yMzA1MDQxNzA2MDBaFw0yNDA1
MDMxNzA2MDBaMIGsMQswCQYDVQQGEwJVUzERMA8GA1UECAwITWFyeWxhbmQxEjAQ
BgNVBAcMCUJhbHRpbW9yZTEhMB8GA1UECgwYSW50ZXJuZXQgV2lkZ2l0cyBQdHkg
THRkMSMwIQYDVQQLDBpTZXJ2ZXIgUmVzZWFyY2ggRGVwYXJ0bWVudDENMAsGA1UE
AwwEVXNlcjEfMB0GCSqGSIb3DQEJARYQdGVzdEBleGFtcGxlLmNvbTCCAiIwDQYJ
KoZIhvcNAQEBBQADggIPADCCAgoCggIBALT1UxpH9qsOcPpkLmli/9KHcJcLhUS2
Sq/WiybGNMHSyUyFYLIRATVmH49U/GwLsdCUGs4g4IP9IS19MNS/Zz3AFOZDprCz
JpM8EPHBumq5HEU3FmxdC4eTCnnZIcfSF8evnZfyKNFjH1TZAPivwBa1libzWsPH
VM4m9h5quJyIu9DN2eVlDVjXsoOIY7p27FO0OjfZ3toZ8S82RQBW/pz2NHVGPtJT
zJPOnTkIkj2tE0QzkjycGAkHrht+/eVWI1ARnNL7pRsLRAxDEF/P/baJQ3xR8Ad8
uyJPr1MLsyprHyI2zG5UsxFl6K/LNLM4cts8SBaXCetLLovdgIRD5yDIOI1fO5qA
LVb8EMOWbMZjID+9ycYmc59/5y+VX8MQJvIV9zYlQFtlQIstCAzvWykGha3oeNoj
YiYKB0AQRhuSzwIq7S054qksOWo+B12dg++IX3CBitcD6lnspJKAAeaY1V8ryrl9
0EhaTmGiXT47Sce4cpMrZecBrvARTC723ze7yGNRdkLk6cTdpsJK0zesCy70F+M7
ImLpk1inOGpclJz2X0Jm2ClOz84YWbJQUCLo0E6YsmfdoqixfNlQ4/ltPBiYnLhI
E/TFjAzkJaJ19dRTdiZScJdIYEm2OZiyEBOCJd+ipqGIz4RVFhYW608ICldgeypv
GPLc717pvaG7AgMBAAGjggFgMIIBXDAMBgNVHRMBAf8EAjAAMB0GA1UdDgQWBBRZ
kl0cfWCjnW/VNxQJu4N5nkYyCTCB3AYDVR0jBIHUMIHRgBRUHf8ZrM7apTGuBBTS
PlWyoH/no6GBtaSBsjCBrzELMAkGA1UEBhMCVVMxETAPBgNVBAgMCE1hcnlsYW5k
MRIwEAYDVQQHDAlCYWx0aW1vcmUxITAfBgNVBAoMGEludGVybmV0IFdpZGdpdHMg
UHR5IEx0ZDEjMCEGA1UECwwaU2VydmVyIFJlc2VhcmNoIERlcGFydG1lbnQxEDAO
BgNVBAMMB1Jvb3RfQ0ExHzAdBgkqhkiG9w0BCQEWEHRlc3RAZXhhbXBsZS5jb22C
AQEwCwYDVR0PBAQDAgXgMBMGA1UdJQQMMAoGCCsGAQUFBwMCMCwGCCsGAQUFBwEB
BCAwHjAcBggrBgEFBQcwAYYQaHR0cDovL29jc3A6ODA4MDANBgkqhkiG9w0BAQsF
AAOCAgEACAJbgZA6YdBLNzxQ0nKXRFdmIg4P5DXGOokHxBhhIrNrfK283wuj+gFe
LZSQ9LJe1wTKKkCk5ekhXUGcImMPHxWFdBsSKb8W7g7teJG22jq8Jl1jZII9yYOE
L4qxstMColyOwJ6XwD4l8MN4CEx+CJwZKKXUMjkQltFrFOl67qAg9f0YeJUGTadx
SZCramnAbGxQ/OqRERVIbbxnAzGpvTPPXrKVyktiP559wmv7DNwjeWLF4R1ktX+S
WJYAB0KnqhD9eMX4WBXiIgn7qefBEpz+RrMaZAS9Ey6ICgoWVoKV9wPPkP0EdwSO
YGr1sOcgske4raxQdbBF4ythfLO0TRbIHLC6b57+lm/QGpiaDO5SkmtQF/exTsqV
HZ+ybOtfSdgiXKn43uAOhRXUmrYP+IziNZ8lALJ28/I5NwoS1pZKRyM+x/7NU+Kt
AB2oKYxZbxacfpQKrEGlDhiGSXGLgoxe3LUFGXmmTOiwqDWUA1cHAXVesu+c1ISH
gxzE6nWpJPmGgoudqAjZMBG0O9qJNsyLN0DY40QmNYt0VNY4OMg7pvpmaKArrikD
Jn4m1ZrUm4QPvKNZQzatN/pnWmA+WQ2f4CVopRpUA0bt/JOxy8Ir77v5pT1hgnZK
wDEFWy4yC1fhdCoej+oHxwBTC6Z01Wv0UuiZSTeQEPA0/t53WN0=
-----END CERTIFICATE-----
