Certificate:
    Data:
        Version: 3 (0x2)
        Serial Number: 2 (0x2)
        Signature Algorithm: sha256WithRSAEncryption
        Issuer: C=US, ST=Maryland, L=Baltimore, O=Internet Widgits Pty Ltd, OU=Server Research Department, CN=Intermediate_CA/emailAddress=test@example.com
        Validity
            Not Before: May  7 18:15:56 2023 GMT
            Not After : May  6 18:15:56 2024 GMT
        Subject: C=US, ST=Maryland, L=Baltimore, O=Internet Widgits Pty Ltd, OU=Server Research Department, CN=Server/emailAddress=test@example.com
        Subject Public Key Info:
            Public Key Algorithm: rsaEncryption
                RSA Public-Key: (4096 bit)
                Modulus:
                    00:dd:78:eb:1b:2d:c7:5d:bf:bd:63:46:aa:c6:0f:
                    84:17:1b:a5:54:e5:09:87:9d:3e:f6:88:1b:c7:ba:
                    fc:6c:e2:d6:c4:9a:85:50:f3:5d:4a:16:54:00:ec:
                    e2:b7:33:d9:a7:b3:c4:6f:eb:61:2f:b0:70:66:2c:
                    04:a8:77:ef:51:c5:34:e1:21:9b:59:24:52:65:03:
                    d0:87:72:3e:dc:b1:bd:4d:9b:4b:3d:14:38:cc:ed:
                    3e:85:51:6e:0d:b1:ac:82:56:8c:d5:ad:bf:45:97:
                    1c:33:7d:24:f2:fc:14:89:36:4a:f3:af:b7:79:0c:
                    1d:b0:f9:0e:c2:24:d0:ae:d4:62:40:38:a9:f1:a4:
                    6d:c9:78:3b:70:db:e2:ba:69:c2:f1:91:50:8d:2e:
                    80:f5:34:33:22:63:bb:0f:67:da:78:c2:8d:e3:f9:
                    23:7d:1d:18:b9:1b:f2:f1:f7:e4:a2:de:b5:5a:cd:
                    9f:90:67:b3:17:0c:80:18:50:6b:51:9d:40:19:f5:
                    d1:e6:8c:42:0f:02:f4:82:cf:24:d9:09:43:f0:c6:
                    fb:91:4f:dd:f8:9c:f1:4e:03:dc:e9:01:9a:b1:5a:
                    df:60:55:e2:ef:57:46:3b:db:f1:bc:52:a2:8e:8f:
                    5f:b9:a6:95:94:7d:96:16:18:53:11:4c:57:93:d5:
                    c8:dc:18:50:d4:a9:b9:a1:04:ad:f8:74:bd:50:c4:
                    ac:9b:a0:54:44:93:5b:90:e6:46:2b:34:8f:0d:ac:
                    30:11:9a:de:cd:04:80:88:b0:70:37:00:4c:3c:18:
                    7c:6f:dc:0f:41:2d:ee:70:c6:26:1f:62:6d:1d:3c:
                    54:bf:5c:d9:52:e9:d5:d6:17:0c:d0:e5:8f:69:a6:
                    0d:41:68:ea:b8:7b:0b:9b:a3:a6:1c:d1:4d:5e:e0:
                    b6:0e:68:36:24:be:21:a5:f5:34:66:27:f6:7a:3c:
                    1c:b5:c4:75:f8:10:18:c6:05:98:f9:7b:e5:48:61:
                    29:9b:60:78:35:b2:02:a3:b2:ce:2c:b5:34:bf:b3:
                    4f:e8:3e:e2:e3:b7:2a:fa:c6:ca:4a:c7:87:4f:ba:
                    1d:3c:7b:13:28:8b:18:81:bd:9d:45:71:ca:6e:62:
                    c6:43:f7:a1:fc:25:b7:cb:56:23:65:ba:a2:c5:5e:
                    9b:b1:88:a4:42:e2:44:9e:2b:99:24:90:4d:76:6f:
                    1b:1c:d8:70:09:e1:d5:c0:81:d8:30:cb:9c:dc:fd:
                    d1:0d:d6:e2:1a:41:e2:dc:8c:e8:44:66:d9:f5:ba:
                    88:c4:d4:b8:29:2f:cc:25:57:8b:e3:79:dc:4d:7d:
                    f0:e8:5b:56:3a:14:07:51:5d:fe:8b:f6:c8:88:09:
                    74:7e:71
                Exponent: 65537 (0x10001)
        X509v3 extensions:
            X509v3 Basic Constraints: critical
                CA:FALSE
            X509v3 Subject Key Identifier: 
                E1:97:A9:DA:6C:AB:3D:C0:09:0B:0A:D2:A2:35:4B:A8:E7:3D:E5:AD
            X509v3 Authority Key Identifier: 
                keyid:EB:30:66:EC:DD:5A:41:75:49:D7:78:55:85:58:61:51:C0:CB:A8:56
                DirName:/C=US/ST=Maryland/L=Baltimore/O=Internet Widgits Pty Ltd/OU=Server Research Department/CN=Root_CA/emailAddress=test@example.com
                serial:01

            X509v3 Key Usage: 
                Digital Signature, Non Repudiation, Key Encipherment, Key Agreement
            X509v3 Extended Key Usage: 
                TLS Web Server Authentication
    Signature Algorithm: sha256WithRSAEncryption
         7f:ff:f5:71:ad:41:fc:17:bb:77:3e:7e:ac:e2:19:9c:5c:b0:
         da:ba:b1:28:50:cb:15:be:8a:d9:e7:2b:f4:ff:b1:4f:7c:e9:
         a8:a5:24:9a:80:4e:46:f6:ce:a4:c0:0f:bd:66:e3:92:fd:58:
         f6:7d:79:43:f4:08:10:75:75:87:61:6b:dd:38:a6:42:4b:39:
         52:69:de:49:fe:bf:eb:56:2b:95:12:e1:db:40:ce:fe:0c:ed:
         2e:10:79:62:30:d8:85:47:4c:ce:2a:d1:0c:f1:2d:fd:42:b3:
         26:d0:77:8c:02:b5:57:81:af:33:a0:b3:b6:35:8a:df:36:b9:
         ab:c1:ac:16:bf:ab:ba:fb:90:25:ae:db:46:51:75:f1:19:12:
         e5:6e:1b:ad:ef:00:e0:97:0e:d6:0c:22:ad:ad:dc:15:2b:24:
         58:44:a7:3a:28:ba:7a:70:f0:76:65:49:b9:54:ad:0d:54:5c:
         26:c0:00:4c:c0:24:7d:11:cb:60:7b:3f:ac:10:7c:18:90:a3:
         f2:66:62:de:2b:74:43:17:b2:9a:bd:d8:85:88:3b:14:bd:d9:
         57:02:3a:d6:2a:d3:de:29:0b:7e:51:dc:f6:6a:f1:12:43:54:
         61:29:fb:ad:3e:3c:28:50:8d:11:ba:a4:6e:50:54:74:a1:4a:
         8c:70:ea:d4:b1:a5:55:36:e5:21:4c:b4:be:60:dc:66:45:b1:
         5d:8c:fa:d7:10:57:a3:43:ad:90:ca:34:e5:6b:e9:c6:17:e3:
         b4:ff:4c:94:d4:cd:ad:39:e7:50:74:ae:79:6f:51:6c:40:ed:
         c5:c0:04:65:88:c6:a8:b7:9d:82:a5:9b:c7:be:fa:87:44:a1:
         e0:1f:88:13:38:98:ee:6a:bc:99:84:12:54:d8:d8:73:33:c2:
         63:5d:2c:cc:5d:77:09:64:85:0e:86:b9:21:39:61:04:95:b3:
         d5:da:20:9d:f0:1b:a5:92:4b:a0:0b:2e:53:bc:e3:b4:5d:98:
         33:3f:1f:4d:c6:41:3a:f6:ef:29:38:1a:7e:a5:c3:ea:55:3e:
         5e:d8:bf:06:16:3a:5f:4e:d8:24:14:40:37:2e:ff:d5:a4:62:
         a9:17:71:85:07:5d:d6:07:25:43:86:a5:05:3c:83:ba:fe:d5:
         9b:21:3f:99:27:53:45:fc:dc:98:99:79:08:46:fe:15:33:d3:
         4e:7c:4d:e5:26:7b:77:28:7b:6e:1c:d5:09:cd:3d:cd:48:cb:
         57:3e:f9:30:5a:93:e0:d8:4e:de:e5:a6:07:1b:46:fa:57:ee:
         27:07:0c:87:d5:39:dd:59:66:b5:5b:75:3f:f5:66:eb:77:ca:
         8d:42:95:f9:a2:74:1d:9b
-----BEGIN CERTIFICATE-----
MIIHFjCCBP6gAwIBAgIBAjANBgkqhkiG9w0BAQsFADCBtzELMAkGA1UEBhMCVVMx
ETAPBgNVBAgMCE1hcnlsYW5kMRIwEAYDVQQHDAlCYWx0aW1vcmUxITAfBgNVBAoM
GEludGVybmV0IFdpZGdpdHMgUHR5IEx0ZDEjMCEGA1UECwwaU2VydmVyIFJlc2Vh
cmNoIERlcGFydG1lbnQxGDAWBgNVBAMMD0ludGVybWVkaWF0ZV9DQTEfMB0GCSqG
SIb3DQEJARYQdGVzdEBleGFtcGxlLmNvbTAeFw0yMzA1MDcxODE1NTZaFw0yNDA1
MDYxODE1NTZaMIGuMQswCQYDVQQGEwJVUzERMA8GA1UECAwITWFyeWxhbmQxEjAQ
BgNVBAcMCUJhbHRpbW9yZTEhMB8GA1UECgwYSW50ZXJuZXQgV2lkZ2l0cyBQdHkg
THRkMSMwIQYDVQQLDBpTZXJ2ZXIgUmVzZWFyY2ggRGVwYXJ0bWVudDEPMA0GA1UE
AwwGU2VydmVyMR8wHQYJKoZIhvcNAQkBFhB0ZXN0QGV4YW1wbGUuY29tMIICIjAN
BgkqhkiG9w0BAQEFAAOCAg8AMIICCgKCAgEA3XjrGy3HXb+9Y0aqxg+EFxulVOUJ
h50+9ogbx7r8bOLWxJqFUPNdShZUAOzitzPZp7PEb+thL7BwZiwEqHfvUcU04SGb
WSRSZQPQh3I+3LG9TZtLPRQ4zO0+hVFuDbGsglaM1a2/RZccM30k8vwUiTZK86+3
eQwdsPkOwiTQrtRiQDip8aRtyXg7cNviumnC8ZFQjS6A9TQzImO7D2faeMKN4/kj
fR0YuRvy8ffkot61Ws2fkGezFwyAGFBrUZ1AGfXR5oxCDwL0gs8k2QlD8Mb7kU/d
+JzxTgPc6QGasVrfYFXi71dGO9vxvFKijo9fuaaVlH2WFhhTEUxXk9XI3BhQ1Km5
oQSt+HS9UMSsm6BURJNbkOZGKzSPDawwEZrezQSAiLBwNwBMPBh8b9wPQS3ucMYm
H2JtHTxUv1zZUunV1hcM0OWPaaYNQWjquHsLm6OmHNFNXuC2Dmg2JL4hpfU0Zif2
ejwctcR1+BAYxgWY+XvlSGEpm2B4NbICo7LOLLU0v7NP6D7i47cq+sbKSseHT7od
PHsTKIsYgb2dRXHKbmLGQ/eh/CW3y1YjZbqixV6bsYikQuJEniuZJJBNdm8bHNhw
CeHVwIHYMMuc3P3RDdbiGkHi3IzoRGbZ9bqIxNS4KS/MJVeL43ncTX3w6FtWOhQH
UV3+i/bIiAl0fnECAwEAAaOCATIwggEuMAwGA1UdEwEB/wQCMAAwHQYDVR0OBBYE
FOGXqdpsqz3ACQsK0qI1S6jnPeWtMIHcBgNVHSMEgdQwgdGAFOswZuzdWkF1Sdd4
VYVYYVHAy6hWoYG1pIGyMIGvMQswCQYDVQQGEwJVUzERMA8GA1UECAwITWFyeWxh
bmQxEjAQBgNVBAcMCUJhbHRpbW9yZTEhMB8GA1UECgwYSW50ZXJuZXQgV2lkZ2l0
cyBQdHkgTHRkMSMwIQYDVQQLDBpTZXJ2ZXIgUmVzZWFyY2ggRGVwYXJ0bWVudDEQ
MA4GA1UEAwwHUm9vdF9DQTEfMB0GCSqGSIb3DQEJARYQdGVzdEBleGFtcGxlLmNv
bYIBATALBgNVHQ8EBAMCA+gwEwYDVR0lBAwwCgYIKwYBBQUHAwEwDQYJKoZIhvcN
AQELBQADggIBAH//9XGtQfwXu3c+fqziGZxcsNq6sShQyxW+itnnK/T/sU986ail
JJqATkb2zqTAD71m45L9WPZ9eUP0CBB1dYdha904pkJLOVJp3kn+v+tWK5US4dtA
zv4M7S4QeWIw2IVHTM4q0QzxLf1CsybQd4wCtVeBrzOgs7Y1it82uavBrBa/q7r7
kCWu20ZRdfEZEuVuG63vAOCXDtYMIq2t3BUrJFhEpzoounpw8HZlSblUrQ1UXCbA
AEzAJH0Ry2B7P6wQfBiQo/JmYt4rdEMXspq92IWIOxS92VcCOtYq094pC35R3PZq
8RJDVGEp+60+PChQjRG6pG5QVHShSoxw6tSxpVU25SFMtL5g3GZFsV2M+tcQV6ND
rZDKNOVr6cYX47T/TJTUza0551B0rnlvUWxA7cXABGWIxqi3nYKlm8e++odEoeAf
iBM4mO5qvJmEElTY2HMzwmNdLMxddwlkhQ6GuSE5YQSVs9XaIJ3wG6WSS6ALLlO8
47RdmDM/H03GQTr27yk4Gn6lw+pVPl7YvwYWOl9O2CQUQDcu/9WkYqkXcYUHXdYH
JUOGpQU8g7r+1ZshP5knU0X83JiZeQhG/hUz0058TeUme3coe24c1QnNPc1Iy1c+
+TBak+DYTt7lpgcbRvpX7icHDIfVOd1ZZrVbdT/1Zut3yo1ClfmidB2b
-----END CERTIFICATE-----
