Certificate:
    Data:
        Version: 3 (0x2)
        Serial Number: 3 (0x3)
        Signature Algorithm: ED25519
        Issuer: C=US, ST=Maryland, L=Baltimore, O=Internet Widgits Pty Ltd, OU=Server Research Department, CN=Intermediate_CA/emailAddress=test@example.com
        Validity
            Not Before: May  4 17:06:00 2023 GMT
            Not After : May  3 17:06:00 2024 GMT
        Subject: C=US, ST=Maryland, L=Baltimore, O=Internet Widgits Pty Ltd, OU=Server Research Department, CN=User/emailAddress=test@example.com
        Subject Public Key Info:
            Public Key Algorithm: ED25519
                ED25519 Public-Key:
                pub:
                    dd:b3:a5:0e:74:13:8c:f7:a5:1b:99:04:66:b6:ba:
                    94:a4:8d:53:d9:68:40:f6:33:4e:2e:a6:e4:a8:84:
                    7b:8c
        X509v3 extensions:
            X509v3 Basic Constraints: critical
                CA:FALSE
            X509v3 Subject Key Identifier: 
                B0:DE:58:F5:54:87:11:34:4E:C2:6A:FD:3E:A5:0F:79:74:8C:FF:38
            X509v3 Authority Key Identifier: 
                keyid:47:D3:55:01:8C:82:01:D0:DC:96:8D:D3:2D:90:9F:6D:42:A1:3F:80
                DirName:/C=US/ST=Maryland/L=Baltimore/O=Internet Widgits Pty Ltd/OU=Server Research Department/CN=Root_CA/emailAddress=test@example.com
                serial:01

            X509v3 Key Usage: 
                Digital Signature, Non Repudiation, Key Encipherment
            X509v3 Extended Key Usage: 
                TLS Web Client Authentication
            Authority Information Access: 
                OCSP - URI:http://ocsp:8080

    Signature Algorithm: ED25519
         99:59:f9:0a:17:77:d9:69:4e:28:95:c5:6d:eb:7a:e9:ed:26:
         b7:eb:cd:fa:d4:2c:f7:34:dd:7d:e3:8b:48:56:68:b1:70:41:
         70:3d:e4:08:a6:59:3a:0d:99:73:04:c3:22:d8:c6:06:de:0b:
         ec:24:9d:f6:89:47:4e:cb:bb:04
-----BEGIN CERTIFICATE-----
MIIDdjCCAyigAwIBAgIBAzAFBgMrZXAwgbcxCzAJBgNVBAYTAlVTMREwDwYDVQQI
DAhNYXJ5bGFuZDESMBAGA1UEBwwJQmFsdGltb3JlMSEwHwYDVQQKDBhJbnRlcm5l
dCBXaWRnaXRzIFB0eSBMdGQxIzAhBgNVBAsMGlNlcnZlciBSZXNlYXJjaCBEZXBh
cnRtZW50MRgwFgYDVQQDDA9JbnRlcm1lZGlhdGVfQ0ExHzAdBgkqhkiG9w0BCQEW
EHRlc3RAZXhhbXBsZS5jb20wHhcNMjMwNTA0MTcwNjAwWhcNMjQwNTAzMTcwNjAw
WjCBrDELMAkGA1UEBhMCVVMxETAPBgNVBAgMCE1hcnlsYW5kMRIwEAYDVQQHDAlC
YWx0aW1vcmUxITAfBgNVBAoMGEludGVybmV0IFdpZGdpdHMgUHR5IEx0ZDEjMCEG
A1UECwwaU2VydmVyIFJlc2VhcmNoIERlcGFydG1lbnQxDTALBgNVBAMMBFVzZXIx
HzAdBgkqhkiG9w0BCQEWEHRlc3RAZXhhbXBsZS5jb20wKjAFBgMrZXADIQDds6UO
dBOM96UbmQRmtrqUpI1T2WhA9jNOLqbkqIR7jKOCAWAwggFcMAwGA1UdEwEB/wQC
MAAwHQYDVR0OBBYEFLDeWPVUhxE0TsJq/T6lD3l0jP84MIHcBgNVHSMEgdQwgdGA
FEfTVQGMggHQ3JaN0y2Qn21CoT+AoYG1pIGyMIGvMQswCQYDVQQGEwJVUzERMA8G
A1UECAwITWFyeWxhbmQxEjAQBgNVBAcMCUJhbHRpbW9yZTEhMB8GA1UECgwYSW50
ZXJuZXQgV2lkZ2l0cyBQdHkgTHRkMSMwIQYDVQQLDBpTZXJ2ZXIgUmVzZWFyY2gg
RGVwYXJ0bWVudDEQMA4GA1UEAwwHUm9vdF9DQTEfMB0GCSqGSIb3DQEJARYQdGVz
dEBleGFtcGxlLmNvbYIBATALBgNVHQ8EBAMCBeAwEwYDVR0lBAwwCgYIKwYBBQUH
AwIwLAYIKwYBBQUHAQEEIDAeMBwGCCsGAQUFBzABhhBodHRwOi8vb2NzcDo4MDgw
MAUGAytlcANBAJlZ+QoXd9lpTiiVxW3reuntJrfrzfrULPc03X3ji0hWaLFwQXA9
5AimWToNmXMEwyLYxgbeC+wknfaJR07LuwQ=
-----END CERTIFICATE-----
