Certificate:
    Data:
        Version: 3 (0x2)
        Serial Number: 1 (0x1)
        Signature Algorithm: ED25519
        Issuer: C=US, ST=Maryland, L=Baltimore, O=Internet Widgits Pty Ltd, OU=Server Research Department, CN=Intermediate_CA/emailAddress=test@example.com
        Validity
            Not Before: May  4 17:06:00 2023 GMT
            Not After : May  3 17:06:00 2024 GMT
        Subject: C=US, ST=Maryland, L=Baltimore, O=Internet Widgits Pty Ltd, OU=Server Research Department, CN=OCSP/emailAddress=test@example.com
        Subject Public Key Info:
            Public Key Algorithm: ED25519
                ED25519 Public-Key:
                pub:
                    03:bd:7b:86:30:45:88:cc:9b:a9:59:72:d8:12:10:
                    6f:c0:3a:9f:63:a8:35:7f:b0:f6:49:e2:94:cf:3c:
                    48:64
        X509v3 extensions:
            X509v3 Basic Constraints: 
                CA:FALSE
            X509v3 Key Usage: 
                Digital Signature, Non Repudiation, Key Encipherment
            X509v3 Extended Key Usage: 
                OCSP Signing
    Signature Algorithm: ED25519
         e6:fa:b5:03:07:68:85:af:76:54:79:8b:fa:85:fd:d5:25:5b:
         45:48:c8:f5:e5:56:ee:3a:20:c8:cd:d8:8a:40:86:1c:e9:09:
         f1:1d:d0:68:28:e1:5a:fc:ad:f1:9a:f3:11:b8:2a:03:38:d5:
         89:8f:6c:1c:05:6d:97:a0:47:0d
-----BEGIN CERTIFICATE-----
MIICQzCCAfWgAwIBAgIBATAFBgMrZXAwgbcxCzAJBgNVBAYTAlVTMREwDwYDVQQI
DAhNYXJ5bGFuZDESMBAGA1UEBwwJQmFsdGltb3JlMSEwHwYDVQQKDBhJbnRlcm5l
dCBXaWRnaXRzIFB0eSBMdGQxIzAhBgNVBAsMGlNlcnZlciBSZXNlYXJjaCBEZXBh
cnRtZW50MRgwFgYDVQQDDA9JbnRlcm1lZGlhdGVfQ0ExHzAdBgkqhkiG9w0BCQEW
EHRlc3RAZXhhbXBsZS5jb20wHhcNMjMwNTA0MTcwNjAwWhcNMjQwNTAzMTcwNjAw
WjCBrDELMAkGA1UEBhMCVVMxETAPBgNVBAgMCE1hcnlsYW5kMRIwEAYDVQQHDAlC
YWx0aW1vcmUxITAfBgNVBAoMGEludGVybmV0IFdpZGdpdHMgUHR5IEx0ZDEjMCEG
A1UECwwaU2VydmVyIFJlc2VhcmNoIERlcGFydG1lbnQxDTALBgNVBAMMBE9DU1Ax
HzAdBgkqhkiG9w0BCQEWEHRlc3RAZXhhbXBsZS5jb20wKjAFBgMrZXADIQADvXuG
MEWIzJupWXLYEhBvwDqfY6g1f7D2SeKUzzxIZKMvMC0wCQYDVR0TBAIwADALBgNV
HQ8EBAMCBeAwEwYDVR0lBAwwCgYIKwYBBQUHAwkwBQYDK2VwA0EA5vq1Awdoha92
VHmL+oX91SVbRUjI9eVW7jogyM3YikCGHOkJ8R3QaCjhWvyt8ZrzEbgqAzjViY9s
HAVtl6BHDQ==
-----END CERTIFICATE-----
