Certificate:
    Data:
        Version: 3 (0x2)
        Serial Number: 1 (0x1)
        Signature Algorithm: sha256WithRSAEncryption
        Issuer: C=US, ST=Maryland, L=Baltimore, O=Internet Widgits Pty Ltd, OU=Server Research Department, CN=Root_CA/emailAddress=test@example.com
        Validity
            Not Before: May  4 17:05:59 2023 GMT
            Not After : May  3 17:05:59 2024 GMT
        Subject: C=US, ST=Maryland, L=Baltimore, O=Internet Widgits Pty Ltd, OU=Server Research Department, CN=Intermediate_CA/emailAddress=test@example.com
        Subject Public Key Info:
            Public Key Algorithm: rsaEncryption
                RSA Public-Key: (4096 bit)
                Modulus:
                    00:e6:ad:9f:e9:8e:6f:09:b8:a5:4f:04:60:e1:ff:
                    be:69:05:bd:b0:d3:f9:f3:90:4f:b3:5f:8c:c1:e6:
                    dd:e5:73:62:50:2b:4c:47:02:5b:be:70:d3:9f:75:
                    d2:37:ed:d7:0e:c4:b0:6d:cf:04:d7:ec:a0:24:0a:
                    ea:89:58:09:0a:c4:1c:8c:c7:ee:1b:dd:1e:bf:01:
                    5c:8c:38:9d:38:14:5f:55:be:26:a3:22:ec:74:35:
                    00:e6:21:05:d7:fc:76:75:bf:80:f4:1e:db:20:1e:
                    b2:46:18:7f:78:22:68:4b:de:ae:c4:0b:32:97:e2:
                    aa:c5:e0:c2:ae:bd:bf:a9:14:de:a5:82:35:08:58:
                    74:20:6e:b4:b7:14:d7:07:59:4b:b1:b7:b2:37:76:
                    0c:fc:f3:e4:7e:6b:ce:5d:a2:20:d8:a3:7b:42:74:
                    42:b6:8f:fe:c1:50:05:6a:8a:4e:89:c0:f2:ae:59:
                    35:c2:bb:bf:2d:c6:70:e5:f5:00:f7:2a:d1:a4:f0:
                    66:33:6e:eb:c7:a4:b3:50:6d:71:35:fe:a4:a8:fe:
                    6f:b0:81:7c:21:7d:fc:79:ff:6a:0e:bc:19:69:a0:
                    1c:a8:12:48:3e:99:e5:70:3f:42:b1:c7:47:55:5a:
                    21:45:34:e3:3c:65:a6:91:75:90:91:34:b7:d6:45:
                    c4:6a:2a:ff:c0:45:73:67:5c:38:74:2b:45:2b:36:
                    90:da:ab:d5:a4:43:90:7e:34:06:92:42:be:cc:fc:
                    ae:38:5f:b4:c2:a5:c9:34:a2:24:46:57:f2:6c:84:
                    ea:34:dd:cc:93:fd:bf:08:3a:ed:a6:31:3a:0f:ed:
                    aa:b3:c1:46:43:d8:6c:a8:b6:ae:cf:9c:a4:f2:4c:
                    4b:57:71:3e:ac:83:b5:6f:d4:f1:53:7d:a3:ef:c9:
                    d3:e8:cd:39:46:14:b4:e0:75:57:b6:67:86:17:d6:
                    b3:6a:9d:9c:fe:89:91:a9:6d:94:65:36:8d:12:87:
                    eb:85:07:2c:14:e5:80:75:e4:8a:a1:75:b8:2e:d8:
                    aa:6c:6c:c5:c9:16:40:2d:cb:27:ca:de:d4:cb:95:
                    8e:48:bf:2f:78:d3:1f:29:bb:db:bb:21:28:c6:87:
                    86:35:99:1b:c8:5f:21:3a:e6:40:ce:87:6a:df:ee:
                    7a:b4:2d:2d:67:4e:69:b5:cf:05:01:80:bb:f2:a3:
                    84:56:17:d4:29:9c:3e:d7:19:33:00:fe:00:06:c4:
                    81:99:b8:9a:df:99:9d:18:f3:86:e3:6e:52:3e:59:
                    65:f2:ce:4e:a3:a0:5b:99:47:37:89:ef:d4:bb:5b:
                    1f:08:fd:dc:41:f3:48:10:8f:5a:78:fc:43:5a:4e:
                    7a:5e:03
                Exponent: 65537 (0x10001)
        X509v3 extensions:
            X509v3 Basic Constraints: critical
                CA:TRUE
            X509v3 Subject Key Identifier: 
                54:1D:FF:19:AC:CE:DA:A5:31:AE:04:14:D2:3E:55:B2:A0:7F:E7:A3
            X509v3 Authority Key Identifier: 
                keyid:72:4D:B1:E2:15:48:10:F0:86:17:6E:17:A7:BB:1D:D7:36:10:10:1A
                DirName:/C=US/ST=Maryland/L=Baltimore/O=Internet Widgits Pty Ltd/OU=Server Research Department/CN=Root_CA/emailAddress=test@example.com
                serial:47:82:42:16:CC:22:1C:8A:0C:00:4D:66:7D:88:F1:EB:B5:9E:37:51

            X509v3 Key Usage: critical
                Certificate Sign, CRL Sign
            Authority Information Access: 
                OCSP - URI:http://ocsp:8080

    Signature Algorithm: sha256WithRSAEncryption
         61:42:42:64:ce:51:b3:57:24:40:40:8f:5a:87:fd:00:06:7b:
         38:d4:0e:f9:40:8e:46:1d:8f:9a:21:27:ae:a8:98:a5:82:44:
         24:82:90:db:e9:8e:1e:d0:54:d9:95:d1:36:bb:5b:fa:3c:a4:
         f8:68:90:a8:cb:6d:f9:d3:fa:5c:5b:2c:38:d8:7a:1e:07:94:
         d2:20:6c:c1:af:f7:35:1b:ca:f9:ec:a7:cf:af:e9:7b:f2:d5:
         4b:ff:9d:49:1d:6f:2e:fd:b1:0c:00:9f:b6:f0:c6:d8:b7:a3:
         ac:6d:65:01:c2:fb:93:eb:49:6d:79:14:a3:a1:18:c0:38:64:
         00:37:d7:c7:f6:68:8b:61:7a:0b:d0:fe:a3:42:ee:23:32:6c:
         82:75:08:ea:d4:34:b4:ce:36:e5:5e:2d:91:44:bf:fb:d0:85:
         39:e1:e2:22:c1:3e:d7:ea:e6:e4:7c:94:93:91:62:47:1c:bd:
         5f:c3:a4:ce:c5:ef:11:17:1e:e2:ab:6a:82:a4:01:b2:cf:39:
         f0:9e:da:3a:23:4f:37:d9:53:06:b2:9e:4b:31:e5:ce:03:89:
         53:27:e6:9c:d6:aa:67:6b:93:0f:0d:a2:8f:4d:dd:a0:fd:ed:
         c4:2c:e7:dd:ea:1c:ec:67:04:f6:20:e3:96:45:db:23:77:bb:
         06:82:25:a6:db:da:ca:d8:43:44:50:17:69:88:d5:46:a1:e7:
         5c:8e:20:5d:a2:26:2e:64:e5:d9:cd:23:35:3c:9c:67:7f:43:
         27:77:3e:60:ff:69:4b:ba:c8:58:48:ec:f8:00:01:ff:1d:9d:
         83:d5:ad:aa:f5:88:2e:f0:37:88:52:81:c0:8e:ae:7c:13:f6:
         e0:8d:74:f8:8a:64:2f:2c:6d:d5:b2:8d:55:82:dc:4b:e6:34:
         75:ea:f6:a5:3f:f6:77:93:10:ab:a8:fa:a0:e2:1d:1f:76:5f:
         db:b7:60:b9:f0:56:eb:fa:7d:d7:01:e4:4e:b3:63:66:fa:58:
         51:5b:95:9b:a5:da:7b:9b:96:5f:e9:d2:f8:59:1a:88:0e:a3:
         74:31:0c:0c:51:07:67:83:11:57:64:76:fd:be:22:24:c4:0b:
         d8:83:02:e8:d4:b8:79:d3:27:bc:9c:85:6b:bd:07:f9:dc:74:
         c2:e1:e3:d9:2d:93:db:ff:51:c6:9c:a0:79:48:76:39:f7:70:
         25:34:58:d5:e7:7a:17:1b:bc:d7:17:99:40:56:14:76:ee:df:
         38:fa:23:10:f9:23:ae:80:3f:bc:ff:f3:67:c8:f8:09:81:64:
         c2:14:64:06:73:a7:99:91:48:67:51:ac:17:ad:62:27:95:db:
         e0:99:a5:1c:a4:ac:e2:de
-----BEGIN CERTIFICATE-----
MIIHSTCCBTGgAwIBAgIBATANBgkqhkiG9w0BAQsFADCBrzELMAkGA1UEBhMCVVMx
ETAPBgNVBAgMCE1hcnlsYW5kMRIwEAYDVQQHDAlCYWx0aW1vcmUxITAfBgNVBAoM
GEludGVybmV0IFdpZGdpdHMgUHR5IEx0ZDEjMCEGA1UECwwaU2VydmVyIFJlc2Vh
cmNoIERlcGFydG1lbnQxEDAOBgNVBAMMB1Jvb3RfQ0ExHzAdBgkqhkiG9w0BCQEW
EHRlc3RAZXhhbXBsZS5jb20wHhcNMjMwNTA0MTcwNTU5WhcNMjQwNTAzMTcwNTU5
WjCBtzELMAkGA1UEBhMCVVMxETAPBgNVBAgMCE1hcnlsYW5kMRIwEAYDVQQHDAlC
YWx0aW1vcmUxITAfBgNVBAoMGEludGVybmV0IFdpZGdpdHMgUHR5IEx0ZDEjMCEG
A1UECwwaU2VydmVyIFJlc2VhcmNoIERlcGFydG1lbnQxGDAWBgNVBAMMD0ludGVy
bWVkaWF0ZV9DQTEfMB0GCSqGSIb3DQEJARYQdGVzdEBleGFtcGxlLmNvbTCCAiIw
DQYJKoZIhvcNAQEBBQADggIPADCCAgoCggIBAOatn+mObwm4pU8EYOH/vmkFvbDT
+fOQT7NfjMHm3eVzYlArTEcCW75w05910jft1w7EsG3PBNfsoCQK6olYCQrEHIzH
7hvdHr8BXIw4nTgUX1W+JqMi7HQ1AOYhBdf8dnW/gPQe2yAeskYYf3giaEversQL
MpfiqsXgwq69v6kU3qWCNQhYdCButLcU1wdZS7G3sjd2DPzz5H5rzl2iINije0J0
QraP/sFQBWqKTonA8q5ZNcK7vy3GcOX1APcq0aTwZjNu68eks1BtcTX+pKj+b7CB
fCF9/Hn/ag68GWmgHKgSSD6Z5XA/QrHHR1VaIUU04zxlppF1kJE0t9ZFxGoq/8BF
c2dcOHQrRSs2kNqr1aRDkH40BpJCvsz8rjhftMKlyTSiJEZX8myE6jTdzJP9vwg6
7aYxOg/tqrPBRkPYbKi2rs+cpPJMS1dxPqyDtW/U8VN9o+/J0+jNOUYUtOB1V7Zn
hhfWs2qdnP6JkaltlGU2jRKH64UHLBTlgHXkiqF1uC7YqmxsxckWQC3LJ8re1MuV
jki/L3jTHym727shKMaHhjWZG8hfITrmQM6Hat/uerQtLWdOabXPBQGAu/KjhFYX
1CmcPtcZMwD+AAbEgZm4mt+ZnRjzhuNuUj5ZZfLOTqOgW5lHN4nv1LtbHwj93EHz
SBCPWnj8Q1pOel4DAgMBAAGjggFkMIIBYDAPBgNVHRMBAf8EBTADAQH/MB0GA1Ud
DgQWBBRUHf8ZrM7apTGuBBTSPlWyoH/nozCB7wYDVR0jBIHnMIHkgBRyTbHiFUgQ
8IYXbhenux3XNhAQGqGBtaSBsjCBrzELMAkGA1UEBhMCVVMxETAPBgNVBAgMCE1h
cnlsYW5kMRIwEAYDVQQHDAlCYWx0aW1vcmUxITAfBgNVBAoMGEludGVybmV0IFdp
ZGdpdHMgUHR5IEx0ZDEjMCEGA1UECwwaU2VydmVyIFJlc2VhcmNoIERlcGFydG1l
bnQxEDAOBgNVBAMMB1Jvb3RfQ0ExHzAdBgkqhkiG9w0BCQEWEHRlc3RAZXhhbXBs
ZS5jb22CFEeCQhbMIhyKDABNZn2I8eu1njdRMA4GA1UdDwEB/wQEAwIBBjAsBggr
BgEFBQcBAQQgMB4wHAYIKwYBBQUHMAGGEGh0dHA6Ly9vY3NwOjgwODAwDQYJKoZI
hvcNAQELBQADggIBAGFCQmTOUbNXJEBAj1qH/QAGezjUDvlAjkYdj5ohJ66omKWC
RCSCkNvpjh7QVNmV0Ta7W/o8pPhokKjLbfnT+lxbLDjYeh4HlNIgbMGv9zUbyvns
p8+v6Xvy1Uv/nUkdby79sQwAn7bwxti3o6xtZQHC+5PrSW15FKOhGMA4ZAA318f2
aIthegvQ/qNC7iMybIJ1COrUNLTONuVeLZFEv/vQhTnh4iLBPtfq5uR8lJORYkcc
vV/DpM7F7xEXHuKraoKkAbLPOfCe2jojTzfZUwaynksx5c4DiVMn5pzWqmdrkw8N
oo9N3aD97cQs593qHOxnBPYg45ZF2yN3uwaCJabb2srYQ0RQF2mI1Uah51yOIF2i
Ji5k5dnNIzU8nGd/Qyd3PmD/aUu6yFhI7PgAAf8dnYPVrar1iC7wN4hSgcCOrnwT
9uCNdPiKZC8sbdWyjVWC3EvmNHXq9qU/9neTEKuo+qDiHR92X9u3YLnwVuv6fdcB
5E6zY2b6WFFblZul2nubll/p0vhZGogOo3QxDAxRB2eDEVdkdv2+IiTEC9iDAujU
uHnTJ7ychWu9B/ncdMLh49ktk9v/UcacoHlIdjn3cCU0WNXnehcbvNcXmUBWFHbu
3zj6IxD5I66AP7z/82fI+AmBZMIUZAZzp5mRSGdRrBetYieV2+CZpRykrOLe
-----END CERTIFICATE-----
