Certificate:
    Data:
        Version: 3 (0x2)
        Serial Number: 1 (0x1)
        Signature Algorithm: falcon512
        Issuer: C=US, ST=Maryland, L=Baltimore, O=Internet Widgits Pty Ltd, OU=Server Research Department, CN=Intermediate_CA/emailAddress=test@example.com
        Validity
            Not Before: May  7 18:15:56 2023 GMT
            Not After : May  6 18:15:56 2024 GMT
        Subject: C=US, ST=Maryland, L=Baltimore, O=Internet Widgits Pty Ltd, OU=Server Research Department, CN=OCSP/emailAddress=test@example.com
        Subject Public Key Info:
            Public Key Algorithm: falcon512
                falcon512 Public-Key:
                pub:
                    09:53:55:e6:d8:17:2d:81:8f:4a:e2:98:8a:90:f3:
                    1d:e4:27:20:4b:10:35:3d:fd:36:e2:2a:47:98:47:
                    aa:62:1b:20:cc:5c:8f:c6:c9:a1:88:97:07:58:d1:
                    5d:d1:c2:03:6f:ac:de:d5:c2:d3:58:8f:a6:54:4c:
                    37:37:e8:d3:a6:3a:eb:a4:da:5d:4f:12:34:7e:f1:
                    ab:0e:bc:bd:74:1b:8b:22:a5:d0:6a:5d:00:72:14:
                    a0:03:16:60:1b:32:5e:a2:ed:0c:1a:b9:2b:aa:09:
                    18:b6:2e:01:4a:26:0a:7a:9d:22:ec:54:52:43:02:
                    23:0e:6d:f5:f1:65:d9:ab:6d:8a:d7:b2:57:80:6d:
                    3d:bd:29:e1:0b:01:bd:41:91:1b:3d:4a:b4:b6:d1:
                    42:b3:96:c6:07:ba:b6:2d:31:ff:de:26:53:ec:a2:
                    d1:f2:0c:51:52:30:e0:91:42:48:46:8a:da:5d:12:
                    fe:d0:ce:a4:c8:68:a6:3b:47:6d:10:ac:9e:14:17:
                    ac:47:73:da:e8:bb:e4:02:8b:3c:fc:03:b6:c2:ad:
                    b4:b9:6e:61:b7:eb:6f:41:66:5d:e4:7a:7a:dd:a9:
                    4d:fa:9b:55:58:5b:3d:75:ca:b7:56:0e:9b:78:90:
                    fe:0a:fa:dc:08:da:59:ca:99:bb:52:d1:63:60:3c:
                    f8:48:6c:e8:bd:4a:e6:b8:e5:0f:e2:45:43:4e:e8:
                    a3:61:ad:b7:05:48:c7:36:a1:84:26:67:09:1f:b2:
                    96:da:67:12:54:61:92:f5:92:9f:78:8e:45:42:f3:
                    e5:2a:1f:09:a2:0b:55:a1:69:78:0c:8b:d2:b2:5f:
                    32:80:ed:5d:f5:46:18:ba:47:cc:28:99:bf:51:e4:
                    15:be:3a:16:7b:8d:cd:72:84:55:aa:e2:c8:3b:50:
                    52:8c:67:92:1a:91:77:f6:ef:b4:a7:a7:9f:19:6a:
                    90:fb:a4:1f:dd:64:82:c0:a5:97:c7:b5:4c:d1:45:
                    54:28:42:c2:01:11:60:28:3f:63:4d:af:3a:8a:44:
                    c8:50:14:75:b1:84:17:2e:29:d9:30:99:f6:05:5b:
                    ea:8e:71:bd:ed:b0:95:60:38:ab:4a:18:b1:31:09:
                    7e:44:9a:e5:b0:78:56:9e:be:f4:b3:87:bb:08:d8:
                    6f:59:ac:f0:9c:92:87:ab:4c:3a:e3:15:a5:9c:0d:
                    d9:63:99:d1:c5:cf:60:e4:ca:f3:b5:63:f9:3d:22:
                    97:fb:32:e6:4f:a9:f1:0a:a1:68:a9:c8:a0:2c:82:
                    c2:f9:45:19:bd:a4:3e:7b:74:6b:da:06:ce:c6:8a:
                    15:21:39:5e:51:a4:e3:a8:6a:de:aa:70:8d:d2:96:
                    e0:4e:2b:e6:c4:b7:35:01:a0:28:66:a9:c6:82:2a:
                    00:15:70:ac:0b:96:0d:07:8f:d4:03:cb:d4:ae:8c:
                    92:f5:9d:3a:97:d6:57:50:89:1c:4b:e7:19:1f:17:
                    50:3a:d6:f2:c5:49:4e:70:1a:22:83:8d:53:61:f1:
                    b2:54:a1:2e:77:a3:0a:2d:5b:59:03:51:0c:20:15:
                    b3:a7:eb:c2:a0:18:2e:d9:b3:a0:8a:68:22:dc:f5:
                    39:1a:12:6f:8c:00:e7:8b:4c:36:7f:62:7c:f9:c5:
                    ec:9b:14:f1:d3:9b:c8:81:f9:1d:92:53:69:ca:64:
                    d6:49:28:00:61:dd:45:d0:bb:b5:71:87:77:ce:e5:
                    a2:4a:6f:2a:48:ac:9d:15:6d:d8:b7:dc:de:f2:51:
                    2e:62:73:de:e5:55:15:98:fb:86:94:2c:bf:2d:6a:
                    1c:25:e5:c3:f2:31:fa:c8:97:1d:6a:3a:0d:10:f4:
                    eb:cf:d8:b6:24:c0:00:18:a4:56:c0:75:74:a5:d7:
                    2b:c7:e1:29:14:51:e7:d6:49:cd:3a:b5:e6:10:63:
                    80:be:5c:be:7d:77:d0:64:30:bf:ad:4e:89:bf:d7:
                    a5:97:31:3a:c8:24:49:16:26:f9:79:b3:02:1b:90:
                    27:d2:05:71:a5:e8:17:68:e5:75:88:c3:2b:b1:71:
                    81:94:89:b1:c4:73:0e:85:82:0a:66:6f:c6:13:54:
                    68:fb:df:6e:ab:79:11:93:e3:49:50:18:6f:5e:8c:
                    e1:96:83:88:2e:8d:3a:d4:f5:a6:19:45:cd:8e:27:
                    4a:95:05:b8:f1:82:58:ed:29:16:02:c0:cb:80:dc:
                    6f:88:83:7e:5b:b0:ea:d5:90:93:2c:20:56:fe:6d:
                    79:85:cd:64:70:4b:ed:5e:a7:75:f0:d7:54:1a:02:
                    1d:c1:25:94:13:25:90:79:f1:b4:a3:05:e0:9c:a8:
                    74:d1:26:be:a5:c9:4c:35:e3:14:b8:d6:3b:98:75:
                    c5:c3:da:61:d7:31:8a:e4:12:04:de:c0
        X509v3 extensions:
            X509v3 Basic Constraints: 
                CA:FALSE
            X509v3 Key Usage: 
                Digital Signature, Non Repudiation, Key Encipherment
            X509v3 Extended Key Usage: 
                OCSP Signing
    Signature Algorithm: falcon512
         39:bf:8a:fe:1d:e0:fc:e3:df:b3:60:51:ce:55:3b:cb:22:9f:
         f3:94:a4:98:37:9e:c2:19:2a:7f:ec:2b:e8:96:b0:e7:72:61:
         85:19:d6:43:ee:e2:14:7b:cb:59:49:59:18:73:2a:65:a5:f7:
         5c:62:ea:32:8b:9c:5b:31:e4:d0:5c:12:5c:6a:a3:9a:d6:3d:
         6f:7e:2f:5e:74:f1:d1:f8:0a:7f:12:4b:29:4a:6e:25:7d:43:
         aa:7a:59:a5:89:2f:40:d5:d6:37:f9:e1:6a:f2:51:06:a4:e9:
         a7:68:db:26:6a:dc:57:e3:64:a9:95:85:a5:2c:a2:f1:e9:a5:
         c7:a2:54:58:f5:77:92:79:e2:e9:39:28:94:4c:2d:bf:75:93:
         aa:c9:51:38:3f:b3:8d:00:ed:45:cb:97:e2:2f:bc:c1:23:34:
         ad:14:55:81:c2:54:b0:a8:a4:64:84:f7:e1:78:da:fb:e3:00:
         ce:67:5c:f4:75:b7:ba:d4:70:27:ee:e6:68:74:dc:de:cc:62:
         ff:18:61:ec:d9:f2:54:f0:29:7a:8e:25:4e:e3:fd:73:6c:fa:
         76:ea:36:c9:b8:73:8d:39:0b:4f:14:08:9b:12:94:e1:a8:32:
         32:be:bd:b1:68:46:29:34:5f:ab:b1:eb:84:9a:4f:dc:c1:f9:
         f2:cc:33:0e:cc:dc:cf:25:7a:63:1e:8b:63:74:b1:49:24:69:
         bb:41:18:e3:e7:46:9a:47:d9:33:f4:78:f0:dd:4c:aa:cd:60:
         6b:06:45:38:b5:68:b7:34:57:9f:35:f5:71:55:2e:b7:a2:ae:
         23:33:65:5b:0c:98:2c:5c:27:27:d8:a0:6f:18:b1:ab:45:fb:
         1b:b6:cb:53:78:aa:72:cf:14:82:6e:f7:3d:cf:b7:ab:69:9f:
         e1:b5:ca:ab:07:00:f3:f0:2b:91:53:4b:34:dd:ab:38:66:2d:
         6f:d7:b0:98:e6:45:92:42:92:33:9b:19:b9:48:7e:3c:7e:6b:
         f5:f8:5b:9e:86:ae:45:19:6a:31:14:e7:8f:9b:31:6a:68:5d:
         26:96:41:28:0e:7b:27:25:f5:ad:4f:42:09:f5:c0:9e:bd:16:
         8e:02:d2:c3:61:4c:dd:eb:29:1e:57:09:e9:03:b7:f9:72:77:
         3e:65:c8:c8:28:d6:b6:86:a7:56:90:ac:cb:d3:75:43:44:fb:
         f0:87:52:a7:a8:47:2c:1e:ea:65:82:42:17:cf:2f:a3:f3:22:
         aa:7e:57:2d:bd:33:1a:f1:99:63:42:5e:1d:a2:5b:17:63:6b:
         43:c1:02:b4:7d:15:e4:be:1e:23:ce:8a:5d:2e:8d:b1:70:d5:
         af:43:1b:b8:6e:2f:c8:d4:65:64:97:d2:e4:c8:d7:26:cc:d9:
         77:a6:56:e8:69:19:d9:ce:76:b4:0f:3c:95:34:18:53:5d:2d:
         93:42:93:7e:ca:39:e9:ec:72:78:95:26:33:75:3c:5d:48:db:
         91:2c:3f:cd:9b:55:ec:d8:f0:27:4d:74:92:8f:0c:93:cf:7a:
         0e:5d:8d:bd:e4:97:b6:71:35:e8:ce:9c:9d:2b:b7:25:42:5f:
         0d:4b:0f:0a:4e:d1:b3:92:78:ff:5e:4f:49:12:e0:c7:a9:44:
         9e:ad:91:64:ed:4a:d5:89:6d:f4:65:cb:ed:0b:ca:c8:3c:51:
         ec:ed:d6:2f:e5:c9:a5:3a:99:14:d6:13:db:a2:e1:e5:64:c2:
         6c:c2:ef:d0
-----BEGIN CERTIFICATE-----
MIIH/DCCBV6gAwIBAgIBATAHBgUrzg8DBjCBtzELMAkGA1UEBhMCVVMxETAPBgNV
BAgMCE1hcnlsYW5kMRIwEAYDVQQHDAlCYWx0aW1vcmUxITAfBgNVBAoMGEludGVy
bmV0IFdpZGdpdHMgUHR5IEx0ZDEjMCEGA1UECwwaU2VydmVyIFJlc2VhcmNoIERl
cGFydG1lbnQxGDAWBgNVBAMMD0ludGVybWVkaWF0ZV9DQTEfMB0GCSqGSIb3DQEJ
ARYQdGVzdEBleGFtcGxlLmNvbTAeFw0yMzA1MDcxODE1NTZaFw0yNDA1MDYxODE1
NTZaMIGsMQswCQYDVQQGEwJVUzERMA8GA1UECAwITWFyeWxhbmQxEjAQBgNVBAcM
CUJhbHRpbW9yZTEhMB8GA1UECgwYSW50ZXJuZXQgV2lkZ2l0cyBQdHkgTHRkMSMw
IQYDVQQLDBpTZXJ2ZXIgUmVzZWFyY2ggRGVwYXJ0bWVudDENMAsGA1UEAwwET0NT
UDEfMB0GCSqGSIb3DQEJARYQdGVzdEBleGFtcGxlLmNvbTCCA48wBwYFK84PAwYD
ggOCAAlTVebYFy2Bj0rimIqQ8x3kJyBLEDU9/TbiKkeYR6piGyDMXI/GyaGIlwdY
0V3RwgNvrN7VwtNYj6ZUTDc36NOmOuuk2l1PEjR+8asOvL10G4sipdBqXQByFKAD
FmAbMl6i7QwauSuqCRi2LgFKJgp6nSLsVFJDAiMObfXxZdmrbYrXsleAbT29KeEL
Ab1BkRs9SrS20UKzlsYHurYtMf/eJlPsotHyDFFSMOCRQkhGitpdEv7QzqTIaKY7
R20QrJ4UF6xHc9rou+QCizz8A7bCrbS5bmG3629BZl3kenrdqU36m1VYWz11yrdW
Dpt4kP4K+twI2lnKmbtS0WNgPPhIbOi9Sua45Q/iRUNO6KNhrbcFSMc2oYQmZwkf
spbaZxJUYZL1kp94jkVC8+UqHwmiC1WhaXgMi9KyXzKA7V31Rhi6R8womb9R5BW+
OhZ7jc1yhFWq4sg7UFKMZ5IakXf277Snp58ZapD7pB/dZILApZfHtUzRRVQoQsIB
EWAoP2NNrzqKRMhQFHWxhBcuKdkwmfYFW+qOcb3tsJVgOKtKGLExCX5EmuWweFae
vvSzh7sI2G9ZrPCckoerTDrjFaWcDdljmdHFz2DkyvO1Y/k9Ipf7MuZPqfEKoWip
yKAsgsL5RRm9pD57dGvaBs7GihUhOV5RpOOoat6qcI3SluBOK+bEtzUBoChmqcaC
KgAVcKwLlg0Hj9QDy9SujJL1nTqX1ldQiRxL5xkfF1A61vLFSU5wGiKDjVNh8bJU
oS53owotW1kDUQwgFbOn68KgGC7Zs6CKaCLc9TkaEm+MAOeLTDZ/Ynz5xeybFPHT
m8iB+R2SU2nKZNZJKABh3UXQu7Vxh3fO5aJKbypIrJ0Vbdi33N7yUS5ic97lVRWY
+4aULL8tahwl5cPyMfrIlx1qOg0Q9OvP2LYkwAAYpFbAdXSl1yvH4SkUUefWSc06
teYQY4C+XL59d9BkML+tTom/16WXMTrIJEkWJvl5swIbkCfSBXGl6Bdo5XWIwyux
cYGUibHEcw6Fggpmb8YTVGj7326reRGT40lQGG9ejOGWg4gujTrU9aYZRc2OJ0qV
BbjxgljtKRYCwMuA3G+Ig35bsOrVkJMsIFb+bXmFzWRwS+1ep3Xw11QaAh3BJZQT
JZB58bSjBeCcqHTRJr6lyUw14xS41juYdcXD2mHXMYrkEgTewKMvMC0wCQYDVR0T
BAIwADALBgNVHQ8EBAMCBeAwEwYDVR0lBAwwCgYIKwYBBQUHAwkwBwYFK84PAwYD
ggKNADm/iv4d4Pzj37NgUc5VO8sin/OUpJg3nsIZKn/sK+iWsOdyYYUZ1kPu4hR7
y1lJWRhzKmWl91xi6jKLnFsx5NBcElxqo5rWPW9+L1508dH4Cn8SSylKbiV9Q6p6
WaWJL0DV1jf54WryUQak6ado2yZq3FfjZKmVhaUsovHppceiVFj1d5J54uk5KJRM
Lb91k6rJUTg/s40A7UXLl+IvvMEjNK0UVYHCVLCopGSE9+F42vvjAM5nXPR1t7rU
cCfu5mh03N7MYv8YYezZ8lTwKXqOJU7j/XNs+nbqNsm4c405C08UCJsSlOGoMjK+
vbFoRik0X6ux64SaT9zB+fLMMw7M3M8lemMei2N0sUkkabtBGOPnRppH2TP0ePDd
TKrNYGsGRTi1aLc0V5819XFVLreiriMzZVsMmCxcJyfYoG8YsatF+xu2y1N4qnLP
FIJu9z3Pt6tpn+G1yqsHAPPwK5FTSzTdqzhmLW/XsJjmRZJCkjObGblIfjx+a/X4
W56GrkUZajEU54+bMWpoXSaWQSgOeycl9a1PQgn1wJ69Fo4C0sNhTN3rKR5XCekD
t/lydz5lyMgo1raGp1aQrMvTdUNE+/CHUqeoRywe6mWCQhfPL6PzIqp+Vy29Mxrx
mWNCXh2iWxdja0PBArR9FeS+HiPOil0ujbFw1a9DG7huL8jUZWSX0uTI1ybM2Xem
VuhpGdnOdrQPPJU0GFNdLZNCk37KOenscniVJjN1PF1I25EsP82bVezY8CdNdJKP
DJPPeg5djb3kl7ZxNejOnJ0rtyVCXw1LDwpO0bOSeP9eT0kS4MepRJ6tkWTtStWJ
bfRly+0Lysg8Uezt1i/lyaU6mRTWE9ui4eVkwmzC79A=
-----END CERTIFICATE-----
