Certificate:
    Data:
        Version: 3 (0x2)
        Serial Number: 2 (0x2)
        Signature Algorithm: falcon512
        Issuer: C=US, ST=Maryland, L=Baltimore, O=Internet Widgits Pty Ltd, OU=Server Research Department, CN=Intermediate_CA/emailAddress=test@example.com
        Validity
            Not Before: May  4 17:06:00 2023 GMT
            Not After : May  3 17:06:00 2024 GMT
        Subject: C=US, ST=Maryland, L=Baltimore, O=Internet Widgits Pty Ltd, OU=Server Research Department, CN=Server/emailAddress=test@example.com
        Subject Public Key Info:
            Public Key Algorithm: falcon512
                falcon512 Public-Key:
                pub:
                    09:0d:7a:cd:d0:97:8e:62:03:32:22:28:e7:c1:95:
                    8c:64:12:48:61:56:f3:42:8a:d7:e4:96:4d:a6:70:
                    4d:66:96:db:a6:1d:37:e2:46:b5:d5:61:61:82:f1:
                    c5:18:85:d6:ee:75:ba:a7:f3:85:d1:7f:a2:68:b2:
                    c6:63:dd:79:a8:8d:b5:1a:a1:97:7e:25:d9:23:58:
                    e1:aa:f0:28:b0:4b:31:72:cb:53:51:c5:2f:3a:b3:
                    8a:87:6f:99:25:49:c7:46:08:62:56:c4:91:82:6d:
                    8f:3f:fc:c6:e4:3e:d3:75:38:0c:93:eb:27:61:d5:
                    5c:74:79:0b:65:9a:52:17:c6:bd:1a:69:57:30:a8:
                    36:6d:a1:41:a0:98:81:0c:9e:31:1a:c7:48:69:48:
                    2f:e8:4b:e2:85:17:8e:95:a7:ce:4c:46:2f:72:b6:
                    81:f1:60:1e:09:9a:6f:49:51:dc:ad:80:3a:9a:a8:
                    e4:d4:69:3e:9c:d5:c1:59:d7:29:82:94:85:8b:e0:
                    2c:27:4a:30:34:16:16:8d:87:23:85:2e:3a:0c:85:
                    9a:71:42:69:85:89:06:21:46:0c:cf:83:57:e6:96:
                    8e:7c:51:15:55:d4:ff:0e:28:0f:53:df:a2:f6:36:
                    38:78:26:b9:5f:b2:aa:89:20:58:09:54:79:01:7d:
                    d5:c9:98:6d:98:6a:1c:57:fb:1a:09:ea:9c:58:6f:
                    ca:42:03:4e:42:b6:7a:55:78:5a:d3:81:6a:cf:cb:
                    09:6a:a1:40:45:37:f3:c5:2f:88:2d:56:76:04:f2:
                    0a:1d:a1:9e:6b:c2:db:08:e0:1e:de:a0:e0:33:e0:
                    ee:7d:1e:a9:61:4b:68:d8:03:96:8c:93:5f:0f:8d:
                    2c:a4:56:60:11:2a:84:51:4e:23:c5:f2:18:21:6d:
                    81:75:fa:8e:5e:ce:41:54:c4:c7:b4:97:8a:75:35:
                    c8:15:f3:56:f0:43:be:ba:c7:59:6f:ea:4f:9e:fb:
                    7a:8b:05:37:72:fa:fc:16:2f:d7:26:6e:d6:00:26:
                    6d:8b:2f:61:d2:a6:ea:67:64:1a:7d:61:31:54:6e:
                    6f:fa:74:24:87:d0:6a:9d:75:92:02:5c:39:85:51:
                    5d:1c:c8:e0:5a:dc:69:47:75:a8:81:ea:51:56:76:
                    2c:cc:b3:89:9c:4a:4f:35:bd:ba:20:65:1a:f9:1d:
                    14:91:6a:79:45:14:b8:65:6d:19:d4:c2:88:60:1d:
                    39:24:da:68:9a:a2:b9:bb:76:e2:1c:80:47:6d:88:
                    85:b1:43:35:71:15:8f:f3:98:52:05:73:e0:38:68:
                    ed:43:f2:3f:1c:0a:0b:7d:e5:9a:66:3a:1f:58:d7:
                    e8:3b:22:b0:88:c4:23:45:8f:4b:82:ee:d0:cf:47:
                    90:89:ac:0e:b2:42:68:a3:25:9a:dd:f0:b2:9c:e8:
                    38:68:69:e2:78:67:bb:93:2e:45:11:87:d3:65:06:
                    ee:4b:80:61:82:c4:41:4d:1d:07:79:40:b2:8f:4d:
                    4b:a5:70:dc:8e:8d:14:dd:8b:80:20:c1:b2:f2:2d:
                    b9:98:56:dd:61:09:c5:e9:84:d8:f1:4e:64:53:93:
                    41:0c:d4:92:de:25:34:bd:6f:ba:53:b2:2f:d1:25:
                    27:0b:3d:16:f9:90:ca:2d:93:29:40:78:1a:34:a7:
                    53:42:84:d6:c5:1c:e3:53:ac:69:e7:96:1d:ad:c8:
                    a3:9e:7a:15:14:95:f2:58:d0:bb:18:84:4f:72:93:
                    f9:67:45:c2:2d:9d:67:49:45:d3:09:e4:de:b2:b1:
                    d2:c5:95:83:31:40:0d:09:b8:3a:ca:2c:9c:b0:ff:
                    6b:fc:c2:d4:83:a9:54:98:87:16:d0:50:6a:ef:97:
                    99:0d:7c:95:dd:86:30:87:43:2a:ba:66:90:c6:99:
                    e8:da:5b:6a:fd:6b:80:68:69:a3:e4:e4:b4:7b:a3:
                    4d:3a:50:9e:c4:e7:ea:ea:6d:c4:62:01:08:17:23:
                    b5:46:7d:00:94:65:9d:0b:cd:e7:1a:76:5a:e2:4b:
                    46:aa:a2:cf:c1:e7:31:cd:5b:b8:42:e0:d0:34:79:
                    ec:04:52:c7:c6:5d:1e:18:2b:64:e3:05:5c:ed:95:
                    a7:ac:61:ec:82:d9:49:05:6c:e2:5b:31:40:e4:24:
                    dc:13:ea:07:20:37:0a:32:82:61:8c:ce:8b:31:8d:
                    98:5b:18:f2:24:4b:2c:27:aa:35:dd:25:55:62:6c:
                    05:6c:79:6c:20:20:43:5d:60:ca:35:13:cb:d4:41:
                    63:8c:7f:46:c6:4f:e5:99:88:d2:c5:80:c3:b6:3a:
                    0a:cc:a9:77:cd:df:2d:42:c4:e4:fb:0d:b5:7c:28:
                    31:d3:9f:d3:ec:06:c2:64:d9:4b:2d:cf
        X509v3 extensions:
            X509v3 Basic Constraints: critical
                CA:FALSE
            X509v3 Subject Key Identifier: 
                4D:28:5D:BC:9F:03:25:9F:92:53:70:1B:AA:0A:B8:F9:FC:A6:64:FC
            X509v3 Authority Key Identifier: 
                keyid:C3:3E:97:0B:00:83:F0:31:98:BB:C6:9B:C1:35:85:42:79:3E:18:6B
                DirName:/C=US/ST=Maryland/L=Baltimore/O=Internet Widgits Pty Ltd/OU=Server Research Department/CN=Root_CA/emailAddress=test@example.com
                serial:01

            X509v3 Key Usage: 
                Digital Signature, Non Repudiation, Key Encipherment, Key Agreement
            X509v3 Extended Key Usage: 
                TLS Web Server Authentication
            Authority Information Access: 
                OCSP - URI:http://ocsp:8080

    Signature Algorithm: falcon512
         39:fa:19:6f:4c:ed:e5:45:bb:98:68:5d:6c:de:8c:d4:82:71:
         b4:7a:c2:0d:53:56:41:99:e8:a3:b8:d3:4f:46:8e:8a:68:8e:
         90:4c:2f:94:b5:a5:63:25:ec:c6:a0:c6:68:bc:1f:e5:b1:01:
         5a:9b:c4:10:b9:35:ef:8a:08:20:c8:fa:ee:a9:c6:44:98:d7:
         7e:b9:db:dc:42:d5:30:6f:f2:2d:5c:0f:8d:63:ef:67:8e:a0:
         c4:32:6c:b7:55:4c:9e:a1:b9:86:cc:93:95:49:13:3e:cd:1e:
         df:92:71:f9:98:57:b4:b4:84:f3:de:8f:b7:af:4e:19:18:7e:
         94:76:80:ad:a4:10:d9:67:36:db:b2:dc:5b:e5:29:d7:dd:4f:
         f2:ef:ba:78:94:9c:b1:ae:25:b7:f1:96:e7:b1:d1:1b:35:c1:
         97:70:dd:3f:be:32:e3:1c:6c:df:c1:b9:73:53:7c:6b:49:86:
         b9:53:dd:ed:7a:6a:4f:29:d6:8d:54:05:8a:44:d8:48:cf:2b:
         c1:ee:d4:b3:af:49:47:85:59:1a:36:49:9a:df:ab:f6:03:44:
         c1:34:8c:a2:73:03:83:4c:0e:06:fb:4d:c4:a1:f9:73:4d:04:
         af:a7:b9:67:e5:18:d9:24:6e:6d:12:e8:a2:88:73:d9:08:aa:
         c3:32:c6:67:ad:a2:5e:7d:4b:56:c1:da:82:65:32:75:74:7a:
         73:07:5c:70:e4:35:0d:40:4f:ea:f1:17:19:52:35:18:d8:51:
         fd:3e:cd:13:3b:f9:cc:1a:d8:31:53:82:e3:12:9a:f5:73:bf:
         4a:88:96:37:b3:61:77:9a:42:4d:49:93:de:b7:ee:fb:57:3d:
         df:f5:49:d3:62:be:11:e7:3b:73:8e:65:c3:a3:ae:e1:c6:da:
         bc:c1:28:a6:32:af:35:22:03:98:20:6e:f3:47:f1:7d:a0:56:
         c4:45:80:6a:74:f7:f7:29:fa:de:c3:1f:d5:d9:27:c6:e5:18:
         e8:86:fd:e5:d4:34:bb:c4:dd:f8:de:aa:ba:c6:6e:49:a1:ed:
         ea:6e:aa:79:a9:93:13:2d:df:bf:64:9f:9c:cd:3a:c5:31:25:
         75:b6:0a:78:a5:8d:c3:e1:76:93:6a:e3:54:6d:d2:24:c9:7e:
         b0:29:b7:00:86:5a:fa:e4:22:06:65:d1:72:17:17:55:52:96:
         00:db:cd:1a:3a:ac:4e:68:fb:a4:d1:bd:04:3d:02:ed:32:12:
         14:ac:af:ef:e2:fa:5d:bc:0a:a7:93:4c:60:f8:e4:72:02:63:
         2c:67:b5:b4:73:b9:05:9e:a3:82:f4:fb:a0:9b:1f:52:ec:ae:
         20:b1:d4:8a:1e:75:b0:5b:0b:e5:3d:a7:cb:d3:96:14:0a:b1:
         38:f9:42:90:ab:24:4b:c6:fb:48:21:68:a4:65:23:91:16:da:
         d4:b2:d8:e5:e9:1d:f4:d6:73:7e:6a:1e:8d:3d:d3:10:71:9c:
         d6:51:f0:d7:27:d2:98:0f:29:51:fd:38:6d:f2:1d:b5:79:73:
         47:d2:4b:1d:2b:f3:4b:14:8f:27:a5:d2:ec:fc:e9:f5:06:06:
         85:2c:a8:d4:4d:a3:f6:c6:25:2d:2c:39:90:54:1d:2d:4c:0f:
         b0:ca:25:7d:ae:63:b1:97:68:33:0a:83:0d:09:54:bd:6e:bc:
         a5:27:96:ef:f1:27:0e:e1:9c:f6:fd:f1:bf:bb:86:18:e5:60:
         04:1e:94:52:e5:f0
-----BEGIN CERTIFICATE-----
MIIJMzCCBpOgAwIBAgIBAjAHBgUrzg8DBjCBtzELMAkGA1UEBhMCVVMxETAPBgNV
BAgMCE1hcnlsYW5kMRIwEAYDVQQHDAlCYWx0aW1vcmUxITAfBgNVBAoMGEludGVy
bmV0IFdpZGdpdHMgUHR5IEx0ZDEjMCEGA1UECwwaU2VydmVyIFJlc2VhcmNoIERl
cGFydG1lbnQxGDAWBgNVBAMMD0ludGVybWVkaWF0ZV9DQTEfMB0GCSqGSIb3DQEJ
ARYQdGVzdEBleGFtcGxlLmNvbTAeFw0yMzA1MDQxNzA2MDBaFw0yNDA1MDMxNzA2
MDBaMIGuMQswCQYDVQQGEwJVUzERMA8GA1UECAwITWFyeWxhbmQxEjAQBgNVBAcM
CUJhbHRpbW9yZTEhMB8GA1UECgwYSW50ZXJuZXQgV2lkZ2l0cyBQdHkgTHRkMSMw
IQYDVQQLDBpTZXJ2ZXIgUmVzZWFyY2ggRGVwYXJ0bWVudDEPMA0GA1UEAwwGU2Vy
dmVyMR8wHQYJKoZIhvcNAQkBFhB0ZXN0QGV4YW1wbGUuY29tMIIDjzAHBgUrzg8D
BgOCA4IACQ16zdCXjmIDMiIo58GVjGQSSGFW80KK1+SWTaZwTWaW26YdN+JGtdVh
YYLxxRiF1u51uqfzhdF/omiyxmPdeaiNtRqhl34l2SNY4arwKLBLMXLLU1HFLzqz
iodvmSVJx0YIYlbEkYJtjz/8xuQ+03U4DJPrJ2HVXHR5C2WaUhfGvRppVzCoNm2h
QaCYgQyeMRrHSGlIL+hL4oUXjpWnzkxGL3K2gfFgHgmab0lR3K2AOpqo5NRpPpzV
wVnXKYKUhYvgLCdKMDQWFo2HI4UuOgyFmnFCaYWJBiFGDM+DV+aWjnxRFVXU/w4o
D1PfovY2OHgmuV+yqokgWAlUeQF91cmYbZhqHFf7GgnqnFhvykIDTkK2elV4WtOB
as/LCWqhQEU388UviC1WdgTyCh2hnmvC2wjgHt6g4DPg7n0eqWFLaNgDloyTXw+N
LKRWYBEqhFFOI8XyGCFtgXX6jl7OQVTEx7SXinU1yBXzVvBDvrrHWW/qT577eosF
N3L6/BYv1yZu1gAmbYsvYdKm6mdkGn1hMVRub/p0JIfQap11kgJcOYVRXRzI4Frc
aUd1qIHqUVZ2LMyziZxKTzW9uiBlGvkdFJFqeUUUuGVtGdTCiGAdOSTaaJqiubt2
4hyAR22IhbFDNXEVj/OYUgVz4Dho7UPyPxwKC33lmmY6H1jX6DsisIjEI0WPS4Lu
0M9HkImsDrJCaKMlmt3wspzoOGhp4nhnu5MuRRGH02UG7kuAYYLEQU0dB3lAso9N
S6Vw3I6NFN2LgCDBsvItuZhW3WEJxemE2PFOZFOTQQzUkt4lNL1vulOyL9ElJws9
FvmQyi2TKUB4GjSnU0KE1sUc41OsaeeWHa3Io556FRSV8ljQuxiET3KT+WdFwi2d
Z0lF0wnk3rKx0sWVgzFADQm4OsosnLD/a/zC1IOpVJiHFtBQau+XmQ18ld2GMIdD
KrpmkMaZ6Npbav1rgGhpo+TktHujTTpQnsTn6uptxGIBCBcjtUZ9AJRlnQvN5xp2
WuJLRqqiz8HnMc1buELg0DR57ARSx8ZdHhgrZOMFXO2Vp6xh7ILZSQVs4lsxQOQk
3BPqByA3CjKCYYzOizGNmFsY8iRLLCeqNd0lVWJsBWx5bCAgQ11gyjUTy9RBY4x/
RsZP5ZmI0sWAw7Y6Csypd83fLULE5PsNtXwoMdOf0+wGwmTZSy3Po4IBYDCCAVww
DAYDVR0TAQH/BAIwADAdBgNVHQ4EFgQUTShdvJ8DJZ+SU3Abqgq4+fymZPwwgdwG
A1UdIwSB1DCB0YAUwz6XCwCD8DGYu8abwTWFQnk+GGuhgbWkgbIwga8xCzAJBgNV
BAYTAlVTMREwDwYDVQQIDAhNYXJ5bGFuZDESMBAGA1UEBwwJQmFsdGltb3JlMSEw
HwYDVQQKDBhJbnRlcm5ldCBXaWRnaXRzIFB0eSBMdGQxIzAhBgNVBAsMGlNlcnZl
ciBSZXNlYXJjaCBEZXBhcnRtZW50MRAwDgYDVQQDDAdSb290X0NBMR8wHQYJKoZI
hvcNAQkBFhB0ZXN0QGV4YW1wbGUuY29tggEBMAsGA1UdDwQEAwID6DATBgNVHSUE
DDAKBggrBgEFBQcDATAsBggrBgEFBQcBAQQgMB4wHAYIKwYBBQUHMAGGEGh0dHA6
Ly9vY3NwOjgwODAwBwYFK84PAwYDggKPADn6GW9M7eVFu5hoXWzejNSCcbR6wg1T
VkGZ6KO4009GjopojpBML5S1pWMl7Magxmi8H+WxAVqbxBC5Ne+KCCDI+u6pxkSY
136529xC1TBv8i1cD41j72eOoMQybLdVTJ6huYbMk5VJEz7NHt+ScfmYV7S0hPPe
j7evThkYfpR2gK2kENlnNtuy3FvlKdfdT/LvuniUnLGuJbfxluex0Rs1wZdw3T++
MuMcbN/BuXNTfGtJhrlT3e16ak8p1o1UBYpE2EjPK8Hu1LOvSUeFWRo2SZrfq/YD
RME0jKJzA4NMDgb7TcSh+XNNBK+nuWflGNkkbm0S6KKIc9kIqsMyxmetol59S1bB
2oJlMnV0enMHXHDkNQ1AT+rxFxlSNRjYUf0+zRM7+cwa2DFTguMSmvVzv0qIljez
YXeaQk1Jk9637vtXPd/1SdNivhHnO3OOZcOjruHG2rzBKKYyrzUiA5ggbvNH8X2g
VsRFgGp09/cp+t7DH9XZJ8blGOiG/eXUNLvE3fjeqrrGbkmh7epuqnmpkxMt379k
n5zNOsUxJXW2CniljcPhdpNq41Rt0iTJfrAptwCGWvrkIgZl0XIXF1VSlgDbzRo6
rE5o+6TRvQQ9Au0yEhSsr+/i+l28CqeTTGD45HICYyxntbRzuQWeo4L0+6CbH1Ls
riCx1IoedbBbC+U9p8vTlhQKsTj5QpCrJEvG+0ghaKRlI5EW2tSy2OXpHfTWc35q
Ho090xBxnNZR8Ncn0pgPKVH9OG3yHbV5c0fSSx0r80sUjyel0uz86fUGBoUsqNRN
o/bGJS0sOZBUHS1MD7DKJX2uY7GXaDMKgw0JVL1uvKUnlu/xJw7hnPb98b+7hhjl
YAQelFLl8A==
-----END CERTIFICATE-----
